2766c4b0d [GreenCityUBS] JDK 21 Migration #6952 (#1270)
41de5c848 role names (#1267)
d3359658a add notification when admin delete violations (#1266)
c44fd1037 Fix notification edit violation (#1265)
9f7cf57ee Add translate for admin (#1264)
0ef928ff0 fix bug with translate events (#1259)
7cc72a97c Update liqpay library
d52b548a9 create method save eng event to db (#1248)
efe5c21a2 create method save eng event to db (#1248)
67b0dc4a6 changed admin email (#1249)
0e2c6e29a #5920 notofication for brought by himself orders (#1245)
0faae69f9 Added setting of status (#1246)
f9cc0e6d7 Commit with change value validation regex (#1243)
37a4933c0 fixed time zone (#1244)
74209e3b3 fixed time zone (#1242)
e315cabac Commit with Orders sort and order cancelation (#1241)
cdcd88cf9 #4675 the issue of changing the status of an order from "Confirmed" to "On the route" (#1240)
4fd82191a Commit with change regex for additionalOrders in OrderResponseDto (#1239)
598643372 #6521 Exception when updating unpaid order (#1236)
d71111412 Create greencity admin (#1237)
d2f8368b9 Revert "Added new user to system (#1234)" (#1238)
900fa668c Added new user to system (#1234)
e42b5a87b Deleted unlogic method (#1235)
b36f072df Bug employee positions get all mapping (#1233)
00134b074 Change in method initializeGetEmployeeDtoCollections (#1232)
290131dca Bug-employee-pagination-after-filtering (#1227)
6a05e6f60 delete unused endpoint (#1230)
b92773577 [UBS Admin History] Fixed edit order (#1229)
b1f9d6c54 Delete ru (#1228)
538999ba4 Added caching to LocationServiceApi (#1226)
3b6e9f9ef [UBS User] The user can't make changes in user profile #6152 (#1225)
ceb42947b [Employee (Admin cabinet)] Add activate employee (#1220)
879b6d40f Deleted concatenation <employee.getFirstName() + employee.getLastName()> (#1219)
15d5ee4a5 Changed authorities (#1217)
f4abcaffb [UBS Address] Fixed edit district (#1218)
54f14e6e1 [Orders] After changing tariff the price of paid order is not changing  (#1214)
1c35404fd update order params (#1216)
c2db04426 Revert "[UBS] - Exception occurs when we try to update order page admin info #6128 (#1213)" (#1215)
ac2d69ba7 [UBS] - Exception occurs when we try to update order page admin info #6128 (#1213)
aa9ecbfef [UBS] - Exception occurs when we try to update order page admin info #6128 (#1203)
1f1058a52 Commit with changes columns length to 255 and validation max length in dto and entity (#1212)
cee8928dc 5579 bug change tariff service name from30 to255 char  (#1210)
0b7c95444 Commit with change of max characters for Tariff Service Name from 30 to 255 (#1209)
fc17bc47b [UBS] - Add an option for the user to save the garbage collection address themselves without using Google API #6139 (#1206)
0903928d9 addresses in order (#1205)
d11d585d2 Revert "[Orders] After changing tariff the price of paid order is not changing  (#1201)" (#1204)
4decde541 [Orders] After changing tariff the price of paid order is not changing  (#1201)
2da249313 #6125 Numeric data entered in the Name and Surname text fields is not saved (#1202)
2097a3384 [UBS] Change region name when we save order address on user profile page #6079 (#1198)
d1dc1a490 Revert "[Orders] After changing tariff the price of paid order is not changing  (#1196)" (#1199)
c020a5316 [Orders] After changing tariff the price of paid order is not changing  (#1196)
526cca77c Revert "regions (#1191)" (#1192)
c046bbb4b regions (#1191)
62bffe9ff used bonuses (#1190)
0dec7004d [UBS_Prod. Tariff page] Changed to show only active locations (#1188)
2121323ca sender info in order (#1189)
b14fb9c29 fix bug with receivingStation empty (#1184)
2622da091 [UBS User] Fix update user endpoint (#1186)
b1ad43023 Revert "[UBS user] Fix controller (#1183)" (#1185)
32ae1ef26 [UBS user] Fix controller (#1183)
63262f92b delete unused endpoint (#1180)
dbb346475 [UBS user] Fixed bugs with location (#1179)
614673e25 [UBS user] Fix bug location (#1178)
e9f66a628 [Admin cabinet] Fix districts field (#1175)
98291d7cf [Pick up city UBS.Admin Cabinet] “Return money” button in the "Order payment" section is disabled when admin cancels the order and selects the "Return money" option #5803 (#1176)
a25748a80 Resolved codeSmells in ViolationServiceImpl and UBSManagementEmployeeServiceImplTest (#1173)
ee0f657a2 updated changelog with new titles for notifications (#1174)
799da3ac7 [UBS Address] User can choose districts on own  (#1161)
95cd5ad13 refactored updateOrderAdminPageInfo to decrease its cognitive complexity (#1168)
90c59d498 Fix minor code smell in files (#1169)
1d4e95ed6 delete location endpoint (#1172)
cf1aad892 update GetEmployeeDto (#1171)
02d2305f1 added table params (#1170)
b69e08e37 refactored method getPriceDetails in order to decrease its cognitive complexity (#1164)
bffd6d623 [Admin cabinet] Fixed nameEN in Position (#1166)
63c2f2d8a [Admin. Orders] Missing of the option "Без менеджера/логіста/штурмана/водія" in the relevant filters #4239 (#1162)
e84a15761 [API] [User Bonuses] Mistake in Swagger documentation #6027 Open (#1167)
3a3c51443 [API. Save order address] The API documentation includes an incorrect 200 status code, causing confusion and issues with data processing. #5461 (#1165)
ca4240dd2 Fix code smell in table column width for employee test (#1158)
af9fd1280 changed repetitive strings on constants (#1154)
e0b7006ad update big_order_table (#1152)
f87ba60ed #5978 [UBS] update notification templates (#1151)
24c391712 - unnecessary check removed (#1150)
e28e931ae Added UBS_EMPLOYEE to access notifications (#1148)
736f44d8e addresses regexp (#1149)
4e097fb71 [Admin cabinet] Fix Position and PositionDTOs, Add tests to all Position DTOs (#1147)
cbc162c83 changed number of characters to 10 of field house_number in Address and OrderAddress (#1146)
8ead6d9c8 [Admin cabinet] Add to the "Position" names division in Ukrainian and English (#1145)
12df4c983 [Pick up city UBS] - Wrong presentation of bags amount in the ‘Orders’ table when admin has changed the Confirmed amount (#1140)
c63cb51ad [Admin cabinet.Pricing page] Not all regions can be deactivated when selected more than 1 item #5928 (#1138)
d69c08d66 #5886 [UBS] Missing information in the formed route notification (#1139)
131acd34e [UBS. ORDER] - bug with big bags amount limit #5957 (#1137)
f1f77b3d8 [UBS] - bug with manual payment #5940 (#1136)
a6f603c59 - changed redirect.green-city-client url (#1132)
d233f3c5b #5927 [UBS] endpoint that returns deactivated locations (#1133)
bb565d61a [UBS] - The cost of the service and tariff service, as well as the order cost, cannot be saved to the nearest kopeck #5935 (#1134)
7b6b60015 [GreenCityUbs] - fix the 500 in big order table (#1135)
50ebe78c3 [UBS] - When we make an order on ubs, the corresponding courier and his locations have to set up #5415 (#1042)
d24372077 Add filtering for employees (#1131)
8f5643d2d [GreenCityUbs] - Order History partially paid fixed (#1126)
df4da38cf add new types of notifications (#1128)
ee310efc7 Update dns name
eec335924 [UBS] Create endpoint to activate statuses by chosen parameters #5892 (#1127)
d454dcb7a [GreenCityUBS] - fix 500 bug when courierId is null (#1124)
4eb98d26b [GreenCityUBS] - add new field to EditTariffDto (#1123)
8c3706b99 #5827[UBS] Data in the "Date of Export" column of the orders table does not correspond to the actual date of export set for the order (#1118)
d0e3a4f2a [GreenCityUBS] - Make class dto fields optional (#1121)
e6b5f3c93 delete unused endpoint (#1119)
37bdc8034 404 400 defined in api documentation for endpoints cannot be applied (#1115)
e58628109 fixed mapper updated test and dtos (#1113)
0be571c46 #5796 [UBS] Throw NotFoundException when employee doesn't have a saved columns width (#1116)
368a3eec4 [UBS] - Edit authorities names in SuperAdminController #5790 (#1114)
ba93e0b95 [API] Incorrect section of endpoint "updates info about order cancellation reason" #5464 (#1089)
c21a6409c #5730 [UBS] payment amount converting mistake (#1111)
62f871bc1 [UBS.Admin.Permissions] API: Admin is able to edit SuperAdmin's permissions #5554 (#1106)
612c5519b - add new field in OrderStatusPageDto (#1112)
d76194634 fixed bug with tariff status when bags have no limits (#1110)
2cbc2ffda Fix delete address endpoint (#1107)
765df9b6e fixed bug with tariff card activation when service is not defined (#1109)
9337cb0fe add new variable
6de32ccf1 #5685 [UBS] Blank amount to pay in the scheduled notification for unpaid orders (#1099)
e69bad3c9 Fixed duplicate message sending to bots and email after changing order status (#1104)
8a7986fbb Added validation for MultipartFile instead of image path, changed type of Exception which throws (#1105)
3fed36386 Add payment details to the order without the mandatory information fix #4719 (#1103)
5bae2e62e #5656 Add makeAddressActual endpoint (#1101)
788167006 Changed orderId to Id (#1102)
888e803be deleted not found status code from api doc for endpoing '/get-all/templates' (#1100)
ac5674438 Changed regex in OrderResponseDto class for additionalOrders field to include 0 to 8 digits (#1097)
2ecf8884c 1) Changed regex in PersonalDataDto class for fields: firstName and lastName to include numbers and apostrophes (#1096)
da7312f41 Save column width (#1098)
d4e1fcf31 Implemented new controllers and repository, created new table in data… (#1095)
9bbb89a83 fix update-order-address endpoint (#1094)
6b3b29c9f fix regex (#1093)
05a6c2e18 #4377 added pay link to UnpaidOrder notification (#1090)
1e2af5593 Changed columnBelonging for 'Blocked by' and 'commentForOrderByClient' (#1092)
7da5ae9b8 Change way of retriving address from google map api (#1087)
d204a7863 url '/notification/deactivate-template/{id}' has been replaced with '/notification/change-template-status/{id}' (#1091)
6da9cc118 Change endpoint for deactivating notification (#1088)
91eb7d7ad fix compile error with ModelUtils import (#1086)
9cf0249a4 1) added new endpoint PUT "/deactivate-template/{id}" for deactivating notification (#1085)
b4d9ee228 Change NotificationTemplateWithPlatformsUpdateDto fields to update notifications (#1083)
cd7320acc Checking order status before adding violation #5391 (#1084)
34acacc9a #5660 bug ubs tg notification title lang (#1079)
97abd1a81 5520 change request to 2865286637064977289828992900 29013707542054173492 clarification order validation and order details (#1081)
7f99109a8 [UBS] - bug with viber bot subscription #5668 (#1080)
6f60fdd0f renamed field with comment (#1078)
d9a965dc7 5520 change request to 2865286637064977289828992900 29013707542054173492 clarification order validation and order details (#1077)
aee6aadf4 Added InterruptedException handling and re-interrupted thread inside (#1075)
9aa66f2a3 #Feature refactoring functionality of notifications for admin (#1065)
20151a79a Changed address_comment field in order_address table and added Length… (#1074)
c3e10b20c Fix big order table #5431 #5441 (#1076)
3d9927581 Set order value (#1073)
40121f6bc Deleted PAID status from OrderStatus, changed city to cities in OrderSearchCriteria (#1066)
f9ce25ad8 Changed address_comment field in address table and added Length annotation over addressComment field in OrderAddressDtoRequest (#1064)
718d29dda [UBS] Enable order filters by city and district, renaming 'settlement' to 'city' in BigOrderTable #5539, #5496 (#1062)
a4e1d1f87 Deleted all classes, methods and dependencies related to LiqPay system (#1061)
5f2b35b62 fixed viber bot uri in application properties (#1063)
36a6fb9c4 Bug #4495 (#1059)
310796d74 #5460 fixed API status code to 401 (#1060)
f5fd4da59 #5467 removed redundant 403 status code (#1055)
fb9b56d1f #5448 fixed incorrect API response status code for unauthorized user for processLiqPayOrder/{id} (#1058)
0021745c6 [UBS. Order details. Admin cabinet] - fix employee duplicate #5395 #5396 #5397 #5398 (#1057)
5d22a95d1 delete TariffsInfoDto (#1056)
73ed7b931 [UBS] - rename from location_status to tariff_status in tariffs_info table #4874 (#982)
f169c6edc Add get reason not taking bag endpoint to managment order controller (#1054)
99a3bacc1 Set order status (#1053)
f7062910a add getCancellationReason endpoint to ManagmentOrderController (#1048)
bafc01f4b Fix #5443/user not exists when violations is deleted (#1046)
546618a4a [API] Admin can update/save employee information with empty required fields #5469 (#1050)
122ec9278 [UBS Admin. Orders. Order details] Change event on update order export details #5427 (#1051)
767a6c69d Order not taken out (#1049)
aeb181841 fix description in Swagger documentation (#1047)
61b94524d [UBS] - Delete the controllers for editing employee's positions #5459 (#1045)
5bb56d4b4 [UBS] - fix telegram bot notification functionality #5447 #5423 (#1044)
a0269344e #5430 houseNumber validation fixed (#1043)
5d3e21db8 [UBS] - create endpoint to edit tariff info #5357 (#1040)
ba2fa102f [GreenCity UBS] Change creation ubs profile for user #5258 (#1039)
97eeef934 Fix bug with bag and tariff id initial values #5336 (#1038)
65a47660f Revert "[UBS] Fix bug with bag and tariff ids initial values (#1030)" (#1037)
648e0397d Fix duplicate bags from order details endpoint #5313 (#1034)
0425f278e Revert "[UBS] Optimize creation ubs profile for user #5258  (#1020)" (#1035)
80a3ddf5f Revert "#5313 Fix duplicate bags from '/order-details' endpoint (#1033)" (#1036)
15970ddbf [UBS] Fix bug with bag and tariff ids initial values (#1030)
2c65a301b #5313 Fix duplicate bags from '/order-details' endpoint (#1033)
aa2ebc7a1 [UBS] Optimize creation ubs profile for user #5258  (#1020)
f0200ff0b [UBS] - fix courier id=1 in the saveFullOrderToDB() method #5302 (#1032)
985d3c452 deleted receiving_station colomn in order table and order_employee table (#1031)
e11881a21 [UBS] - create endpoint to get tariff limits #5325 (#1029)
b6112d585 request param type changed to string (#1028)
8fe0cc801 Deleted unused endpoint and all unit testing, services and mocks (#1027)
d28067168 [UBS] - create endpoint to switch tariff activation status #5291 (#1025)
d6439ac31 Fixed update authorities for employee. (#1007)
0773d101a Fix#5246 duplicate bags from order details endpoint (#1023)
b806c803c small change in UBSManagementServiceImpl (#1024)
7cd7ea327 added cancellationReason to OrderDetailStatusRequestDto and made functionality to save it in order when cancel order (#1022)
e7e03f74c Ubs order history (#1015)
9076cbfe3 Revert "#5246 Fix duplicate for user bags from "order-details" endpoint (#1016)" (#1021)
65480edb2 #5246 Fix duplicate for user bags from "order-details" endpoint (#1016)
e7e9ea056 [UBS] - assigning a superadmin for a new tariff #5275 (#1019)
4f80eb452 info inserted into service table (#1017)
ec68ac2a6 @Markiro1 (#1018)
6a50ee970 Fix/#5194/incorrect order history after cancellation (#1006)
1806c816a [UBS] - combining endpoints to set all tariff limit parameters #5252 #5249 (#1009)
4e929955c [UBS] - change response in ManagementEmployeeController for save and update methods #5257 (#1014)
51a2630c4 changelog for bag table added (#1004)
171864f32 Incorrect amount of surcharge in the message #4374 (#1008)
a0735ed39 Add logs (#1013)
f2c212f57 Add logs (#1012)
439f5d17d Add logs (#1011)
1bb574c29 added logs (#1010)
0621660bb Green City UBS Delete unused endpoints Management Order Controller (#992)
2279bb729 Deactivate employee (#997)
d39f3429c #4370 fixed clock timeZone for notifications (#1003)
5d43b3f64 Fix upgrade employee (#1005)
eaa1ea11a changelog added (#999)
c3dce2fb5 Card #4495 - Order History fixed for canceled orders (#986)
6a71a41ed patch to put changed (#1002)
9386fe650 Update pattern for create new receiving station #5173 (#1001)
e3d402ca6 [UBS] - refactoring methods and endpoints to include/exclude limits for bag #5217 (#998)
b87c7022d added check if the certificate exists (#1000)
109b756a4 [UBS] - change endpoint for editService() and createService() in SuperAdminController.class #5118 (#995)
7be07ae38 [UBS] - Bag, addTariffService() and editTariffService() refactoring (#990)
298475a92 Bug fix 400 error when admin trying add comment to order (#996)
e29eccb3b Added new order history event for first setting up export details #5063 (#993)
e2e80971b change @Min(0) and  @Max(1000) value of points and initialPointsValue in CertificateDtoForAdding (#994)
78cd2d8a5 [UBS] - change save employee and update employee #4928 (#955)
cb315a955 add functionality for deactivate tariff for tree cases (#987)
ac88c50ef [UBS] - update the data in the bag table #5204 (#991)
fd83567b9 Geocoding bugfix (#989)
bd24f21b5 Added event 'add bonuses to user' to order history (#988)
00fd36b8b Update greencity-ubs.yaml
509816058 [UBS-User. User Data page] User Date don't save changes if house number with "/" like "1/3" (#973)
401b0310d [API] [UBS_Tariffs_Courier] The system create new courier in "Тарифи" with invalid data (#972)
f38d28a92 @Markiro1 (#984)
4aedf04e6 Feature #4980/change min max amount and price (#964)
f8af69f22 Update az-cd-pipeline-prod.yml
3e6dcb72f 5150 ita social projectsgreencity api ubs user user data server response 500 error after trying to savechange addresses (#983)
10556c3ff [UBS Admin. Orders. Order details] With query with null the data is not saved in the database #5126 (#981)
ed5dc4ac3 [UBS] - getTariffService() refactoring #5092 (#977)
1d38e0bb9 Update az-cd-pipeline-prod.yml
22d0b211b Fixbug #5060 order history payments (#976)
d573acf68 Merge branch 'dev' of https://github.com/ita-social-projects/GreenCityUBS into dev
6653b8191 configure pipeline
e93467573 GreenCityUBS bug in saving events  (#975)
949422561 1) added new method findBagsByTariffInfoId() in BagRepository (#979)
556e66ecb disable kubernetes tests
350b6acde fix pipeline
d5cc1ab4a configure dns
3e4cccaef Merge branch 'dev' of https://github.com/ita-social-projects/GreenCityUBS into dev
2aeb23efc production pipeline
6dbf8b616 adding 409 response status (#971)
dd03fbfc4 Fix bagInfo query (#974)
5aac6ae00 [UBS] - change fields createdBy and editedBy type in Bag.class #5069 (#969)
f67b5e402 Revert "Update data into regions (#968)" (#970)
9cc52ec1d Update data into regions (#968)
918eafb46 UBSManagementServiceImpl: (#966)
9cd29b46d Change getService() return type #5057 (#965)
57174934c UBS bug in deactivate tariff  (#963)
2e7a5d199 #4851 fixed 403 error while trying to access customers violations by tweaking SecurityConfig (#958)
4e0e231dd  Bug fix 500 error from /update-order-detail-status/{id} endpoint when try to change address (#957)
2a999f270 fix get-data-for-order #4944 (#961)
4f8987854 refactoring getService (#962)
8e1cbfc92 1) changed field "services" to "service" (#959)
ca62df99b 1) changed link (#956)
fd5f7f918 [UBS] - migration ServiceTranslations to Service #4944 (#948)
6e3ca188f #4939 convert delete endpoint to patch (#953)
5fb11b6dc #4929 implement SuperAdmin service for endpoint "/setLimitDescription/{tariffId}" (#952)
1a9c82ad8 #4983 fix test/tests for order for user service (#951)
8e4b154d6 1) added fields: (#950)
0e5c947fc 1) added fields: (#949)
55f86ef3c adding endpoint to SecurityConfig (#946)
1bfe64a93 [UBS] - change logic in database #4981 (#943)
41685b933 Fix/set bag translation to bag (#935)
d86cd5d56 [UBS. EmployeeRepository] Fixed mistakes in documentation for methods employee repository #4979 (#944)
2f0f51308 [UBS] - fix bug in super-admin-controller / add-new-tariff-method (#938)
38ba293e0 Create new table order address for UBSuser and change mapping (#942)
fe5bbd76e [UBS] - The response status of creat a new courier should be changed from 500 to 400 if the courier already exists. #4923 (#939)
84d9a82be [UBS] - Tests should be written for the deactivateTariffForChosenParam() method in the class SuperAdminServiceImpl.class #4855 (#937)
21b910f53 Bug-adding-address-in-order-controller (#932)
8cdbb5cb1 [UBS Tariffs ] - fix create receiving station error #4813 #4783 #4796 (#928)
f274ed4dc [UBS] - delete table courier_translations. #4876 (#933)
c6c404677 #4703 Created setLimitsForTariff controller (#934)
9a7b2531a fix security config (#936)
5d0f3e941 fix sql request to get sum of full_price (#931)
e7780139e [UBS] - create DB for prod #4872 (#930)
2395e7484 #4480 Fixed setting time of server to notifications (#925)
8d20b2c9d fix GetTariffsInfoDtoMapper() (#927)
1f5130ede [UBS] - Create new controller for deactivating tariffs. #4832 (#926)
18e40ffb8 Functional/#4767-change-fucntionality-with-deactivating-tariff (#924)
dedb93a0d #4480 Fixed setting time of server to notifications (#923)
d69c9140c Fucntional/#4756-create-new-endpoint-to-return-list-of-active-locations (#922)
394f42c47 add_english_description_to_bag_trasnlation (#921)
cbee5737e add_english_description_to_service_translation (#920)
3a6c388fc #4758 changed /ubs/order-details endpoint to have locationId as optional field (#919)
163e4b157 Bug-with-save-reason-without-images-415-error in method saveReason() ManagementOrderController (#918)
f95f0d6fd added new endpoint to SecurityConfig (#917)
71284e68b fix problems withTariffsForLocationDto and (#916)
6d6536194 added new endpoint to SecurityConfig (#912)
8749dddda Save employees from UBS to "users" table in GreenCityUser #4704  (#913)
2ab164a08 #4702 Fixed getFirstPageData() returns bag translations for all existing tariffs (#908)
eac816861 added new possible statuses when changing and fixed a bug with not saving the changes made (#909)
48c733f4c fix bug (#911)
f328c5dd9 [UBS] - Add authority to get access for method editService() #4725 (#910)
06ad7749f Revert "#4702 (#906)" (#907)
e7d4d1ba6 #4702 (#906)
eb30052d0 #4699 (#905)
44243bd59 #4698 (#902)
34cc2caed Fixed security config (#904)
7f9c9f50a Super admin controller security config bug (#901)
32064e33f Added controller to SecurityConfig (#903)
71df9c585 TariffLimits controllers refactoring #4688 (#900)
8c0210bf4 Management employee controller bug #4630 (#899)
4b677093f Notification Template Dto update (#897)
2bdc20845 #4676 createTariffService change response status (#898)
7a3a392ab #4658 EntityNotFoundException for NotificationSchedule fix (#896)
8d61da466 Added controllers to SecurityConfig (#895)
8bc5bc65f SetLimitDescription security bug #4656 (#894)
f47ccb358 Ubs employee permission  (#890)
46f09fedb Bug Controllers (#879)
eeb321e10 Queryissue (#893)
821877913 Queryissue (#892)
99a4eb954 Queryissue (#891)
3208f6f8e ManagementNotificationController security bug #4649 (#889)
3733c8d0f Location Summary end-point (#876)
09d28f823 Queryissue (#888)
8e17532fa Queryissue (#887)
4629ae958 Queryissue (#886)
0a0e36992 Revert "catchProblem (#883)" (#884)
1dd0cb78f catchProblem (#883)
1a2d6ebe6 Revert "Catch the query issue or something (#880)" (#881)
ddf2301f7 Catch the query issue or something (#880)
2eab2c6f3 Bugs 500 (#878)
6a116e932 notification without authority (#877)
d31a4050a #4384 ubs dao refactoring (#875)
22d2f59e8 #4607 (#874)
049342def Security fixed (#873)
07c8d564f User authority functional #4503 (#872)
96ade2af8 #4419 Fixed the maximum amount of order addresses for the user (#871)
e31664aa4 Feature/get order for user (#870)
1e0915259 Remove language entity (#869)
13805846c CreateService bug fixed (#868)
2f27c50f9 Bug#3649 & Bug#4552 (#867)
e7ddd0d52 Missing of status "Оплачено" for filtering "Статус замовлення" #4255 (#866)
11da59aa2 correct authority (#863)
4903320e4 Client Controller documentation bug fixed (#861)
28386e999 Event history bug fixed (#860)
ad242c620 #4424 fixed response exception status (#859)
5ae36f47a Added canceling reason and comment (#862)
adeff27ca Security config for CheckIfTariffExists controller fixed (#858)
fbc43523e The system returns 200 instead of 400 status code when the user enters the same data in Body #4409 (#857)
05fb342cf Create controller for checking if new tariff already exists #4523 (#855)
5bebf962a Fixed BigOrderTable View (#854)
08d0250f0 Increase the code coverage of services #4506 (#853)
ec44a2703 Add concurrency
ab09fb74d Recalculating certificates points (#852)
2fd2c2b81 Rewrite disabled tests #4494 (#851)
aba8f9365 Core refactoring #4383 (#849)
cbe08fb3a Service refactoring #4385 (#847)
f1cbd05c3 Added email from principal (#850)
c4663c8a9 Big order table, employee, tariffs page (#846)
4d5f4fb88 fix #4432 (#845)
0e677d8ce Bugs #4404 #4405 #4406 (#842)
3d0b69aa7 K8s tests (#844)
01ffea06a Fixed 403 error (#843)
dc7d4edde Covered SuperAdminFunctionality #4448 (#840)
7a81643eb #4447 securityconfig refactoring (#841)
3866b5a1d SecurityConfig refactoring #4447 (#838)
a746b931b Fix logic ubs employee (#837)
482da683c #4386 overpayment refactoring (#835)
e2671403d bugFix/sumToPay calculation (#836)
82467d7da Added employees to exclude (#834)
d0fb1aad9 Update values.yaml
345e6c5f3 resource managing (#833)
377b92b91 K8s tests (#832)
5149fefad Restore logic
ee2220268 Fixed broken logic
4b1790c7e Revert 828 revert 827 ubs employee (#831)
496cc3293 Bugfix/bigordertable localization (#826)
6cdb10549 Revert "Revert "Revert "Ubs employee (#827)" (#828)" (#829)" (#830)
065f6a905 Revert "Revert "Ubs employee (#827)" (#828)" (#829)
00d8d1b3c Revert "Ubs employee (#827)" (#828)
dac22ac6e Ubs employee (#827)
b0e37cde6 Fixed location edit for different regions and name validation (#825)
efeec79f1 Added filtering and sorting to getAllTariffsInfo (#824)
5082e2f56 Fix ingress
357b2c5fd add tests and Test reporter (#823)
e7d4704bf Changed redirection url
69aa146e3 Added exception when order is already paid (#822)
6536c0836 Changed getter for en version (#821)
8350c4038 Added extracting certificates overpayment and initial points value for certificates (#819)
13cd0046e Merge branch 'dev' of https://github.com/ita-social-projects/GreenCityUBS into dev
1b2aa47bb Connection to new objects
7727f23b1 Update redirect link
5301272ca Merge branch 'dev' of https://github.com/ita-social-projects/GreenCityUBS into dev
3c346affd Connection to clusterissuer
0c0c3d093 Fixed point acquisition issues (#817)
89df76eea Clear native query (#818)
b0e3e1ac8 Clear native queries. (#811)
8ee13fa67 Fixed OrderPaymentStatus not being HALF_PAID for orders partly paid with points or certificates (#816)
91e265603 Fixed bag update order (#815)
d28e66a27 Added calculation of order's overpayment (#813)
bcb71e713 Certificates fix (#814)
129fbd2e9 Merge remote-tracking branch 'origin/dev' into dev
f7381e2e2 Changed maximum size of uploaded files
f500ee3e4 increased proxy body size
9b730a950 Inactive users notifications (#812)
b1bab86b9 Merge branch 'dev' of https://github.com/ita-social-projects/GreenCityUBS into dev
1f06267a1 made helm chart more flexible
b37dedbc1 Fixed bugs #4031 #4114 #4115 (#810)
844206335 Fixed liqpay payments
7090e4280 fix (#809)
ddd9d97d5 fixed (#808)
9d8249521 #4355 The controller for payment of the formed order. (#805)
0b049be30 Delete_Certificate Controller (#803)
991f6d5e0 Update az-cd-pipeline.yml
6109075c4 Update az-cd-pipeline.yml
4203461f8 Merge branch 'dev' of https://github.com/ita-social-projects/GreenCityUBS into dev
91635b018 fix cors
a53c0d03a Changed column names (#804)
115d68875 Fix bug, when controller return bad response for paying order (#807)
057e9bad5 added controller for finding info about TariffInfo by order (#806)
5e4e30320 #3899 Message is not received (#802)
d18b753fe add variables for azure container
a138adb2e Added new field to dto
d64c53512 add Google api key
3dad65aa3 add new variables
35e960bed Resolved issues with redirection
6ed71d231 change service type
e62c904db Update az-cd-pipeline.yml
0499d5bf5 Update az-cd-pipeline.yml for Azure Pipelines
59ecf1e58 Update az-cd-pipeline.yml for Azure Pipelines
115b3f78c Added deploy to k8s
374b06cc8 added ubs helm chart
3d7d121c6 Fixed order amount (#800)
b333142b8 Merge remote-tracking branch 'origin/dev' into dev
17f9021f7 Updated application properties to resolve issues with Hystrix timeout exception
8f8e0752c Sending data about address (#799)
c5e2e6f94 Removed redundant logs
25a0567a6 Changed hystrix timeout
4a0758eb3 Feign Client
a9e9218fa Revert "Resolved issues with test failure (#797)" (#798)
229267a2c Resolved issues with test failure (#797)
92c87e151 Resolved issues with test failure
f911e2248 Update Dockerfile
54f726479 Changed path
3218e9fe1 Changed path
eb5ab1e1d Changed path
86cd61ec1 Changed path
d815b6fb3 Changed path
6fe21ab79 Changed path
bf2d89ba4 Changed path
e1fb571c2 Added remote debug port
c7365c5f2 Update Dockerfile
61b55dabe Update Dockerfile
c26e33034 formatter and checkstyle (#796)
df63168a8 Ubs cabinets payments (#795)
b30955b2a Tariffs location (#788)
61739f795 fix feign client (#793)
c71dcc12c Added authorities to security. (#792)
0970a6c25 Send user data #4106 (#790)
16842b270 fixed bug (#778)
ce2f5d429 send ubsuser's data (#787)
24861c441 working (#786)
646a725ef Edit CustomExceptionHandler (#785)
cbad128a4 Create Dockerfile
faf5626f4 ADd docker build
bbeb7c6d6 Alternate_email in personal information for UBS order (#781)
73e8b93fe Tryorderstatusupdate (#784)
2f2a054de Tryorderstatusupdate (#783)
62d396ed9 Tryorderstatusupdate (#782)
8a99e9062 Tryorderstatusupdate (#779)
f84e58ea6 added alternate_email (#777)
f21e2d434 Images for violations, payment settlement date regex and draft order points (#776)
fadc84e3b Fix bug "add bonuses to user account" #3649 (#775)
2a55d2daf Fall back (#774)
f9723b1af fixed bug (#770)
1b249ac93 Revert "orderDto logic (#772)" (#773)
5630bd80d Added fall back strategy for registration. (#771)
78e46205f orderDto logic (#772)
d34651f8e Fix bugs with notification about unpaid order #3896, #3917 (#758)
6a4821446 Sonar issues fix #4191 (#769)
a84055f8d #4169 Write tests for two methods and their private methods (#755)
1bad6c708 Sonar issues fix #4191 code smell (#760)
fd7f15892 Implemented google api
fb435f27a Revert "Implemented google api (#740)" (#762)
146e0847d Implemented google api (#740)
b00c86be9 #4170 Write tests for one method and for the private method used in. Fix existing test to test all private methods. (#759)
ccb3674cf added status filtering to /ubs/client/user-orders (#757)
6dd1a7717 Feign hystrix fallback factories (#751)
c16e80fca split exceptions into separate packages (#752)
55111a09c Add sorting for orders by order_date (#753)
c26683052 New tariffs info (#748)
f1d68fdae changed column name and category (#749)
80d46faaa Fix bug with receiving notification about confirmed (#747)
aa3f4794d Further notification providers abstraction (#4082) (#744)
cf4e1b9aa Added abstraction for viber and telegram bots, refactored OutOfRequestRestClient, implemented service account (#743)
a093eb6b2 Dto refactoring (#741)
aa83082ff adding notification about returning bonuses (#739)
c86e9b4fd fixing unnecessary changes in controller (#738)
5b1c2b47f notification about paid order added (#737)
6d96da2c0 added "hasPassword" field to [/ubs/userProfile/user/getUserProfile] response. (#732)
87f145a7f update docker properties (#735)
808aedca1 Small fix (#734)
2de5bdf17 docker properties (#733)
fca3f5af5 Fix methods getOrderStatusPaymentTranslations and getOrderStatusTranslationsId (#731)
ff4c85c6d Fix bugs with translations (#710)
5a1e5c63a Restclient refactor (#3731) (#727)
cef08c1aa change null to empty string (#729)
47d3a7804 Added nonNull check for receiving station id in updateOrderExportDetails (#728)
0b7fa2b31 Roll back (#726)
b9b6248aa Small changes in payment's (#725)
d82925c64 hot fix (#724)
6389afe76 Service connection changed (#723)
0b6474016 Update courier fix (#719)
d05b81701 Sonar 3965 (#720)
53af78ee8 Revert "Az cd (#721)" (#722)
49653f70c Az cd (#721)
8e1579f62 [UBS.Order] Fixed order address duplication (#3963) (#717)
05c454620 Changed /ubs/management/get-order-export-details/{id} response (#716)
22770c835 [UBS] Fixed bugs in order controller (#713)
d484c6cb8 fixed updateAllOrderAdminPageInfo to update export details (#715)
343c8fe00 Updated changingOrder, fixed caller employee position_id inconsistencies (#714)
8b200b51f Edit response in BigOrderTable and edit controller updateAllOrderPageAdminInfo (#712)
988931fec Create controller for user orders (#709)
1e7e43f02 #3930 updated api responses, fixed privacy issues, added unit tests (#707)
9897f2f66 #3927 Removed cancelFormedOrder, set order for point history, added unit tests (#706)
a5d41f861 Fix controllers for receiving stations and couriers (#705)
e467f709a Added point return for canceled orders (#703)
a32ecaef5 Extracted cron expression/time zone into properties for CertificatesScheduler(#3733) (#702)
78079927e Ability to update body in notification template (#701)
88691238d #3804 create new logic to get all locations (#696)
1dc6dc6a2 Rewrite method for adding bonuses (#700)
31a65bd3e added check on null (#699)
04732ec28 New branch (#698)
444421c7a Fixed an overpayment subtraction bug. (#697)
1f97e4839 Fix bugs with adding bonuses (#695)
e45715719 Create new controller (#694)
83c0bd668 refactored categories (#693)
86427a0f2 1) fixed bug calculate an order sum without discount (#692)
feb2264af Create controller for adding bonuses for user. (#691)
c48b14461 [API UBS Admin Cabinet] Management Order / Get details of user violation of the current order - missing details “Додано” #3617 Fix (#690)
3be43b69f created new test (#689)
f4fefedac fixe email notifications (#688)
fe5db3040 added check on null (#687)
7eeeb0945 Created tests for new mappers (#686)
176d32664 Mapper Tests + CourierInfoDtoMapper fix (#685)
57632a60a fixed (#681)
0f414bfb4 Tests for UBSManagementServiceImpl (#683)
9c21aac74 [GreenCityUBS] project and create new test for mappers #3854 (#682)
f7c009a37 created new column and deleted language_id (#676)
c13635b3a fixed (#680)
1511de159 Big Order Table (#677)
e6cc13769 created new unit tests for mappers (#675)
f8fda4efa [UBS]Error in updatePageAdminInfo #3786 fix part 3 (#674)
8594ad1f9 Added new integration test for AddressRepository (#673)
6fd0eda8d #3786 error in update page admin info fix 2 (#672)
a60e9eb57 #3786_Error_in_updatePageAdminInfo_fix (#671)
5019c2752 Hard coded a link for successful payment (just fot experiment) (#670)
ea3cf484e Added changelogs for location_translations and region_translations tables (#668)
ecf026c6d Ubsmanagementserviceimpl test coverage (#667)
b7ecc5cdd Created new controller (#665)
2af8f5da7 Refactor GetCourierLocationMapper (#664)
ec8b34de7 Hotfix/remove param (#662)
47edadba9 #3736 numberutil (#663)
e4bab8a10 Hotfix/block unblock orders (#661)
3969deab1 Fix NPE in ViolationServiceImpl for method AddUserViolation (#660)
4a0d71c26 Fix history (#659)
f9e78da6f changed Employee format on get method (#658)
9702f4a60 Code smells fixes (#657)
d1105a6a6 I deleted unused service and method (#655)
48373a52d added constant field format_date (#654)
c84246db1 Integration tests updates (#653)
f38942d9d refactor and code smells fixes (#652)
738d20759 Integrations test for UserRepository (#650)
184fd37d6 Fix overpayment in UBSManagementServiceImpl (#649)
d3658fb5c Moved method to NotificationeService (#648)
cd56a6064 new environment variable default value (#647)
74d73e01f 3751_tests_for_UBSManagementServiceImpl (#645)
d4bbbf70d Returning user's bot links with user profile data (#646)
6fbc1fbe0 #[3799] Calculate orderDiscountedPrice according to the new formula (#644)
34643d8cc Wrote tests for UBSManagementEmployeeServiceImpl.java findAllActiveEm… (#642)
0bf15b25d Testing (#641)
9264f6912 I have created new CoordinateService (#638)
f207985af renamed UserViolationsService to ViolationService, moved all methods connected with violations into ViolationService (#640)
8a5adf123 Test Containers (#637)
52c14fa16 Update responsible employee (#618)
22f8ff6d9 Revert "Returning user's bot links with user profile data (#636)" (#639)
5ab2a2845 Returning user's bot links with user profile data (#636)
fbd7a1bf8 notification schedule settings (#623)
7a3df2cba I created CertificateService (#635)
551907548 Change name and surname at the first login (#634)
64528b315 Big order table (#633)
ce5042821 Big order table (#632)
6a4c5afec only numeric characteristic condition (#629)
4813ff6d9 Big order table (#630)
84237e5dd fixed some column (#628)
9dfc54b1b Added validation to Eco Numbers (#627)
997b09a72 changed function (#625)
9d3ed55f4 I added new columns to address table (#626)
e99e044ec refactoring some fields (#621)
39efd91ff Tests for UBSManagementServiceImpl class (#622)
15bc7740d Add trigger (#624)
bf0dee062 wrote a new method in ClientController (#620)
4f2a39c65 wrote new unit tests (#619)
b5a3b3c59 fixed NPE in updateManualPayment() method (#617)
aab5d3852 Fix broken logic  (#616)
a4c73e755 Change name of field and fix logic in method (#615)
29c560b64 Add file .xml in changelog file (#613)
0c19f3fb9 returned link (#612)
98f5e0365 new Test (#611)
4fe09ab48 Change datatype of column payment_id in Payment table (#610)
6dc73d1be fixed view bigOrderTable (#609)
c4e6e8fe2 Added sorting to violations table (#607)
358dcf81a changed to temporary link (#608)
23c02fd91 Search (#597)
ebb40b43c Add method which will update Order payment status using manual payment (#606)
e75d45881 Incorrect order price on Admin Page (#605)
bad4b46a4 Add new field in PaymentInfoDto (#604)
b3726f1b0 wrote new controller (#602)
2292ae416 Revert "wrote new controller (#600)" (#601)
dd077b18f Fixed logic in method updateOrderPaymentStatus() (#598)
709c56bca wrote new controller (#600)
2588d80eb Fixed bug with getting wrong user when trying to see their violations (#599)
41ff02992 Eco number (#595)
4343b9d1a add update, findAdll and findById methods for notification template (#589)
4e72bd429 Merge branch 'master' into dev
bd805b5f2 Merge pull request #594 from ita-social-projects/3714_3715
1736d5146 added private method createAddressDto() in UserToUserProfileUpdateDtoMapper class
53330e8b0 deleted public modifier from UserToUserProfileUpdateDtoMapperTest class
1406e36d0 added formatter
e88743687 resolved conflicts
60c40fede fixed some code smells and added test for UserToUserProfileUpdateDtoMapper
2fb5e8d8f Created functionality for added region's to location (#585)
82bf5b556 Merge branch 'dev' of https://github.com/ita-social-projects/GreenCityUBS into 3714_3715
ebfb80e40 Added new DTO for updateUserData and added validation for field additionalOrders
d62833b91 refactor updateUserViolation, added UpdateViolationToUserDto (#593)
d110c6c45 Merge pull request #592 from ita-social-projects/add_new_field_in_PaymentInfoDto
5c19b02a5 Merge branch 'dev' of https://github.com/ita-social-projects/GreenCityUBS into add_new_field_in_PaymentInfoDto
5b04e10d2 added field 'imagePath' in PaymentInfoDto
fdc81257e Merge pull request #591 from ita-social-projects/changeFilter
532257ada changed filter by delivery date
c94f1cfdd Merge pull request #590 from ita-social-projects/3622_Change_the_transfer_of_cash
616678061 fixed some code mistakes
76db85e6f transferred coins to notes
07456d0c5 Merge pull request #588 from ita-social-projects/#renameFileds
459434bc6 rename fields
e17ecfc2d Merge pull request #587 from ita-social-projects/refactoring_update_to_get
2eee31b68 fixed tests
524d4dc64 fixed test
aaf7e7728 fixed order history part
d00f7692d fixed code smells
61b137364 fixed test
820fffe88 fixed code smells and some changes with method returning type
45b62a37e fixed test
efaf9c6d4 Merge branch 'dev' into refactoring_update_to_get
e467a6ed2 Refactoring part of Update Method
9a9ca4965 Merge pull request #586 from ita-social-projects/3698_Incorrect_calculating_overpayment_and_unpaid_amount
37e8b68fc added formatter
daf6bb079 fixed calculating amount in calculateUnpaidAmount() and calculateOverpayment() methods
f816266b9 Merge pull request #583 from ita-social-projects/#Refactoring_method
39db69305 Merge pull request #584 from ita-social-projects/3633_message_about_bonuses_return
0fd585dda fixed test
0c306e278 Merge branch 'dev' of https://github.com/ita-social-projects/GreenCityUBS into 3633_message_about_bonuses_return
69a8a32a1 fixed mistakes from last changes
5de0cb4e6 refactoring methods
697fa7f02 Merge pull request #582 from ita-social-projects/3633_message_about_bonuses_return
7e2f75cbe Merge branch 'dev' of https://github.com/ita-social-projects/GreenCityUBS into 3633_message_about_bonuses_return
1222065f7 changed view of overpayment sum to zero if overpayment > 0
3b968092b Merge pull request #581 from ita-social-projects/search_for_customers
b5eee996e did some improvements
7b614e5f9 Merge pull request #580 from ita-social-projects/#fix_bug
0e3e983ed fixed error
a9703051d Merge pull request #577 from ita-social-projects/Revert_fix
22bd07ff9 Merge pull request #578 from ita-social-projects/search_for_customers
5bcdadf81 did some improvements
109a04f28 Revert "Revert "Fixed fields kike keys and fields properly in dto's""
81891ed7d Merge pull request #575 from ita-social-projects/revert-570-fixedFieldsAndAddCanceletionReason
353f5b0b4 Merge pull request #571 from ita-social-projects/search_for_customers
4231ece6e formatter + checkstyle
cf1319201 refactored
005bb5af2 fixed error code 500
9acb51b62 fixed error code 500
9c5f51475 Merge pull request #574 from ita-social-projects/ExualsAndHashCodeTableOrders
4d0672069 Fixed test's
a781d3f2a Formatter
15ed96286 Fixed issue
50ccf90a7 Changed equals and hash code in orders entity and other entity that have depended on order entity
4da44ecc3 did some improvements
8a4ac013d fixed
b6bee7121 fixed code smells
8d5e49a14 final fixed code smell
26da60dac fixed bug and code smells again
654283c7f Merge pull request #573 from ita-social-projects/fix_500_response_in_get-all-orders-data
69dda1c5e fixed 500 response in get-all-orders-data
6511dfb70 Merge pull request #572 from ita-social-projects/revert-570-fixedFieldsAndAddCanceletionReason
39050a723 Revert "Fixed fields kike keys and fields properly in dto's"
63b7e620b fixed bug and code smells
d1865784f add search to customers
2b2064283 Merge pull request #570 from ita-social-projects/fixedFieldsAndAddCanceletionReason
558d011db Merge pull request #568 from ita-social-projects/#newMethodForClientController
25636e349 Check style and Formatter.
d1826ad2a Change keys and field.Fixed this bugs.
27814c943 fixed error
f60420cd3 added formatter
cea167321 Merge branch 'dev' into #newMethodForClientController
0e62bfbb9 Merge pull request #535 from ita-social-projects/Order_Page
c6903269f Resolved conflicts.
de4f286f2 added formatter
f57023160 Refactoring methods
c7351ccef Merge pull request #569 from ita-social-projects/dev_#3605_filtering_employees_page_and_fix_default_sort
684d90130 fix naming
ef44172de fix naming
b646f8c09 filtering employees page and fix default sorting
033812cfc Refactoring methods
d76e3a135 fixed code smell
7a2be856b fixed code smell
4016a3679 Added formatter
b97d3377c Merge branch 'dev' into #newMethodForClientController
32fab826e A new method has been written for the Client Controller
3d8d7e1e6 Merge pull request #566 from ita-social-projects/#3661
88b6526f1 Add Tests
cd2ff0ded Merge pull request #565 from ita-social-projects/points_problem
52bbf6ac2 fixed code smells
e0f7805f8 fixed formatter
70bc28c3c fixed test and bag
1b3967baa fixed test
42b83468d fixed display of user bonuses
54d56e14e Merge pull request #564 from ita-social-projects/3638_Add_ability_to_see_lists_of_Address_in_UserProfile
3edb6e639 Merge branch 'dev' of https://github.com/ita-social-projects/GreenCityUBS into 3638_Add_ability_to_see_lists_of_Address_in_UserProfile
0286acfd3 changed logic in updateProfileData(), fixed some mistakes
c216f5c5c Merge pull request #563 from ita-social-projects/#WriteTests
cb407b069 new unit tests
ec45386ba Merge pull request #562 from ita-social-projects/filter
643c8716e fixed test
73266cf5a Merge branch 'dev' into filter
754f5219a refactored + formatter + checkstyle
d81cd9db8 Merge pull request #561 from ita-social-projects/#WriteTests
70dd526e4 fixed cod smells
d9683744a added new tests for this method
e2887e885 Merge pull request #560 from ita-social-projects/3638_Add_ability_to_see_lists_of_Address_in_UserProfile
5f5c5726a formatter + checkstyle
cbf02791b fixed mistakes (hidden deleted addresses from user profile)
b5c9174e5 add filter
634374278 Resolved comment.
3dd73e013 Merge pull request #559 from ita-social-projects/3638_Add_ability_to_see_lists_of_Address_in_UserProfile
d0f95b0f0 Resolved conflicts,fixed failure test;
2441ca35a Merge branch 'dev' of https://github.com/ita-social-projects/GreenCityUBS into 3638_Add_ability_to_see_lists_of_Address_in_UserProfile
3b44a8754 fixed mistakes (all addresses were in array inside one String)
a95b2ee1c Resolved conflicts,fixed failure test;
237d67cea Merge pull request #558 from ita-social-projects/#WriteTests
1a3e3994d added new tests for this method
7bd1e9a2e add filter
4d5e9c32f add filter
3dc9a765b Merge pull request #557 from ita-social-projects/fixAdminComentUpdateAdminPage
3a9f13c16 Fix admin comment for order and fixed some small bags.
6786850ba Merge pull request #556 from ita-social-projects/#WriteTests
8b64cc9a3 added new tests for this method
9bec5ba7a Merge pull request #555 from ita-social-projects/refactoring_update_method
915797188 Fixed code smells
d3c308c4f Fixed some bag
6c52c0c6b Merge branch 'dev' into refactoring_update_method
20c35a045 Refactoring Update method
155a3aee3 Merge pull request #554 from ita-social-projects/3622_Change_the_transfer_of_cash
ddaf7fa8c fixed mistakes
5f0a5c0aa Fixed code smell's;
aafbada8e changed fields 'overpayment' and 'paidAmount' from coins to notes
bfd02cee4 Merge pull request #552 from ita-social-projects/#CorrectioOfMethods
0b1ce2506 added new tests for this method
360710971 added new tests for this method
c1dc11753 Correction of method
4d7393421 Correction of method
ea0ca1fbc add filter and search
19974d1d5 Merge pull request #553 from ita-social-projects/dev_#3605_filtering_sorting_employee_fix
a0e47bbb2 fix searching and sorting employee list
be7d9182b Correction of method
b60258304 fixed code smell
aa09feaa5 Correction of method
06d99abfb Correction of method
c4a972921 Fixed code smell's;
ccb7bd81c Fixed code smell's;
2ed134af3 add filter and search
1595d0c26 Merge pull request #551 from ita-social-projects/part_of_update
9fe272bba fixed formatter
f254849d9 fixed tests
23ca3ec48 fixed tests
eb765bb39 Fixed code smell's;
8dca30145 Part of update controller
6090f3bc0 Fixed code smell's;
7e5e74a53 Merge branch 'dev' into Order_Page
2b60e94ce Fixed issue with test's in controller.
b79893a33 Fixed issue with text and added docs.
3a8c21780 Merge pull request #550 from ita-social-projects/create_method_in_ManagementEmployeeController_to_return_all_active_employees#3620_dessdee
68c064f8d add test and deleted employeeStatus from SwaggerExampleModel
aef02ae08 Refactor Employee-related DTO's and mappers to operate employees entities without employeeStatus field
e95f6b4b3 created new controller /getAll-active-employees, used same criteria-related logic, refactored it to prevent code doubling
366807c36 Merge pull request #549 from ita-social-projects/3638_Add_ability_to_see_lists_of_Address_in_UserProfile
095aa2bfc Changed UserProfileDto.class. Transfer field AddressDto to List<AddressDto>. Refactored code connected with Addresses in UserProfileDto
5d44fa778 Refactored some methods on Order Page and Pricing page
6881f99ee Merge branch 'dev' into Order_Page
7b98cb0fd Refactored some methods on Order Page and Pricing page
19b4e175d Merge pull request #548 from ita-social-projects/#3358_Client_violations_page
07991db10 fixed smells
41dec1724 added controller for user's violations
d05909e50 Merge pull request #547 from ita-social-projects/dev_#3605_filtering_and_sorting_employees_page
ba357eb60 fix code smell
d66de93ec fix code smell
1cdcb5095 formatter
5821a6697 formatter
398db3d7e Merge pull request #546 from ita-social-projects/revert-545-#deleteNullRow
06c5d65dd Revert "deleted null values in column region of table address"
c77912aa8 Merge pull request #545 from ita-social-projects/#deleteNullRow
7d4b4ad5b Merge branch 'dev' into #deleteNullRow
3dbf1b4db deleted null values in column region of table address
daf7ff4a9 Merge pull request #544 from ita-social-projects/fixOrderIdBug
cafab8faf Fix updateAddress bug.
28eb95fb1 Merge pull request #543 from ita-social-projects/fixedUpdateOrderPageAdminInfo
17f6a149b Merge branch 'dev' into fixedUpdateOrderPageAdminInfo
685810162 Fixed ExportDetails logic in updateOrderPageAdmin method in ManagerServiceImpl class.
192cd7239 Formatter
294b642f0 Merge from dev
442ea78ec Merge pull request #542 from ita-social-projects/Change-Length-Column
64c0b15c1 Changed length order status on db to correct value;
51a4feab6 Merge pull request #541 from ita-social-projects/fixed_update_employee#3611_dessdee
0168c4cbb fixed update-employee method in UBSManagementEmployeeServiceImpl.java to work with new employee status field, changed SwaggerExampleModel.java to satisfy new DTO format
7290bd2d0 Merge pull request #539 from ita-social-projects/#3607_fix_update_user_data
7aa2c0d3d Merge pull request #540 from ita-social-projects/aditionalControllers
2cbde5c6b Сreate duplicate methods  for Ivano-Frankivsk
e3572859d Fix unit tests
7c184f630 Resolved conflict's;
0d84dcf71 Fixed conflict's;
019906336 Added some new SQL query in insert.sql
2fd7b4d1a Added some new SQL query in insert.sql
48adb5251 Fix a runtime error and disable changing UBS user
b88501da1 Merge pull request #538 from ita-social-projects/#3593_unit_tests
9f81472f4 Tests
97919bd3b Merge pull request #537 from ita-social-projects/fixNameOfFields
378e6ee05 Refoctoring code.
4288b9671 Merge pull request #536 from ita-social-projects/writeUlpdateAdminPageController
8fa1b0405 fix bug.
aef4ad772 Merge branch 'dev' into writeUlpdateAdminPageController
e32460f7e Wrote UpdateAdminPageInfo controller first part.
d3219a30b Removed code smells
f5cbc12e6 Added tests for mappers;
a32d964c6 Refactored some functionality for order's and super admin
93d5af2c2 Refactored some functionality for order's and super admin
ff1256282 Merge pull request #534 from ita-social-projects/payment
9e32a2252 refactor
09132fb69 formatter
463d295cd payment -> with pennies to bill
bc9351560 Merge pull request #533 from ita-social-projects/fixAddressFieldsInGetOrderStatusPageMethod
6c60cbf67 Changed fields in getStatusPage in ManagementServiceImpl class
5e900b8f8 Merge pull request #532 from ita-social-projects/Optimize_response_time
36251d227 Fixed some issue in process order;
6420933dc Merge pull request #531 from ita-social-projects/orderStatusRules
a520b5801 remove unused class/method
f87c073d7 remove smell code
485b5670a small fix
efe7ae93c small fix
e9c7cc55a after formatter
697e9facd after formatter
a55de767d after formatter
f0fae3f93 change logic
8e07839e2 change exception
d316844da after formatter
7dbfec4ba Merge branch 'dev' into orderStatusRules
0ae1da7c9 Merge pull request #527 from ita-social-projects/create_work_status_for_employee#_dessdee
af8a30d39 Merge branch 'dev' into create_work_status_for_employee#_dessdee
1a910109e Merge pull request #530 from ita-social-projects/fix_bug_in_controller_processOrderFondy
eaa56ad9a fix bug
7a030572d Merge pull request #529 from ita-social-projects/Optimize_response_time
9f9b5f5ac Formatter
6f4f55151 Fixed test.
3fd886618 Merge pull request #528 from ita-social-projects/#3581_fix
a93be0d8e Formatter
50200a444 Refactored some methods for optimize response time.
ed920c168 Fixed setting status to an order
17ae3feb6 Merge remote-tracking branch 'origin/create_work_status_for_employee#_dessdee' into create_work_status_for_employee#_dessdee
d145fcd21 checkstyle and formatter
f5fb000fe Merge branch 'dev' into create_work_status_for_employee#_dessdee
3049f211d created enum status for Employee.java, refactored delete-employee/id in ManagementEmployeeController.java to change status instead of deleting from BD, updated related tests and DTOs
9dcef259b Merge pull request #526 from ita-social-projects/renameField
ee8fe5edf small fixed.
453d00d50 Merge pull request #525 from ita-social-projects/fix_bug_in_controller_processOrderFondy
5132893dc fix bug
bd2f0465c Merge pull request #524 from ita-social-projects/#3581_the_order_still_has_'UNPAID'_status_when_it's_fully_paid_by_certificate_or_bonus_account
15db9d5dd FIX: the order still has 'UNPAID' status when it's fully paid by certificate or bonus account
e0f651d2a Merge pull request #523 from ita-social-projects/dev_#3555_min_amount_of_big_bags_and_price_per_package
1b186109f formatter
163bd6155 formatter
185918721 #3555
3e277e6ad Merge pull request #522 from ita-social-projects/#3580_bug_negative_prices_are_shown_in_'orders'_tab
5f052cd36 fixing bug: negative prices are shown in 'orders' tab
8c5b084cf Merge branch 'dev' into orderStatusRules
09bc25291 Merge pull request #521 from ita-social-projects/#3357_sorting
4ab1ad4e6 fixed bugs
ff2972df7 Merge pull request #520 from ita-social-projects/#3357_sorting
56234ee04 fixed code smells
d2280713e Merge remote-tracking branch 'origin/#3357_sorting' into #3357_sorting
f7fc7771a fixed code smells
072f4a352 fixed code smells
8433638f8 Merge branch 'dev' into #3357_sorting
b843fd0b4 added test file
d5c4302c3 added sorting for getAllOrdersForUser
76d1b78c1 Merge pull request #519 from ita-social-projects/Address
2b8836c3f changed link;
1dd1dbbac formatter
2e3006f41 Fixed bugs.
e015ac05c Merge pull request #518 from ita-social-projects/fix_bug_in_controller_processOrderFondy
4641a12a1 fix bug
72263defc Merge pull request #517 from ita-social-projects/#3519_regular_certificates_checkup
c60cca819 Fixed code smells again and checkstyle
66e893bbe Fixed code smells again
c08b1341d Fixed code smells
02a5d5042 Fixed test
db37885c0 Fixed code smells,added tests
60130e617 Added checking certificates actuality
237a8849b Merge pull request #516 from ita-social-projects/Address
c4207a7a1 Fixed issue with internal server error.
c87bbe78a Merge pull request #515 from ita-social-projects/#3557new_controller
cdfca7278 added new PostController processOrderLiqpay
5b213c0b6 Merge pull request #514 from ita-social-projects/revert-511-#3557_new_post_controler_processOrderLiqpay
886be51a1 Revert "Added new postController processOrderLiqpay"
c47dabf8e Merge pull request #511 from ita-social-projects/#3557_new_post_controler_processOrderLiqpay
95f5fba3a Merge pull request #513 from ita-social-projects/GetDetailsOfUserViolation
c3894b268 fixed name
cd780f410 fix test returnsViolationDetailsByOrderId
d41c7af20 add images into getViolationDetailsForCurrentOrder controller
df79c6c6b fixed name
534d388ea Added new postController processOrderLiqpay
419bed577 Merge pull request #512 from ita-social-projects/fixGetOrderStatusData
08a40a226 Fixed code.
bd5d5173f Added new postController processOrderLiqpay
8cf0df99c Merge branch 'dev' into fixGetOrderStatusData
bd710fcef Fixed code.
a98ac21b5 Merge pull request #510 from ita-social-projects/#3554_new_PostController_processOrderFondy
711781857 fixed cod smell
7a283424b I added new post controller processOrderFondy
c80de8162 Merge pull request #509 from ita-social-projects/revert-505-revert-504-revert-503-dev_#3555
e00eb9eec Revert "devDev #3555"
dfd39fc69 move logic to enum
c296816be Merge branch 'dev' into orderStatusRules
47cafacd1 move logic to enum
6b3c0bd7a Merge pull request #505 from ita-social-projects/revert-504-revert-503-dev_#3555
1dbe5ba62 Merge pull request #508 from ita-social-projects/orderStatusRules
61b580933 fix bug
3ba51ce51 Merge branch 'dev' into orderStatusRules
04184dcd2 after formatter
2791f0ed8 other changes
6f9f2529d Merge pull request #506 from ita-social-projects/orderStatusRules
9d9c69a19 simple version
aa816c6d8 Merge branch 'dev' into orderStatusRules
187cfb7e7 Revert "Revert "min amount of big bag and courier price per package""
1a23a855b Merge pull request #504 from ita-social-projects/revert-503-dev_#3555
0434d93d9 Revert "min amount of big bag and courier price per package"
820df3cbe Merge pull request #503 from ita-social-projects/dev_#3555
c7674009b code smell
02a8bdb77 min amount of big bag and courier price per package
737daf276 Merge pull request #500 from ita-social-projects/edit
72d11f488 Merge branch 'dev' into edit
85579ae2b Fixed some bugs.
f8deff5a7 Merge pull request #467 from ita-social-projects/update_task#3498_dessdee
9f2b4388c delete logger
5242ddb0d Merge pull request #502 from ita-social-projects/revert-501-orderStatusRules
79f8804a7 Revert "Order status rules"
445a1b32b Merge pull request #501 from ita-social-projects/orderStatusRules
79cc22c3a small fix
0a615d6ec hashSet -> set
3f1b4ef1b add logger
d30263791 add logger
bce4b625f after formatter
e719e4909 previous variant was wrong
cd23f67d8 Merge branch 'dev' into orderStatusRules
5a18f043b delete large switch
7ab24d431 Merge branch 'dev' into edit
a29a42411 small fix.
b1eea50aa remove codeSmell.
255273b47 Merge pull request #499 from ita-social-projects/edit
9c97b34c1 edit (Fixed) method getOrderStatusData on UBSManagerServiceImpl class.
fa1602ea7 Merge pull request #496 from ita-social-projects/revert-495-editOrderStatusDataServiceMethod
785138830 add an exception
e2da7e67e Revert "Edit orderStatusDataService method in UBSManagementServiceImpl class"
b07021644 Merge pull request #495 from ita-social-projects/editOrderStatusDataServiceMethod
6b65d5cff fixed code small and bugs in third time getOrderStatusData method in UBSManagementServiceImpl class.
f1c36dd50 fixed code small and bugs in second time getOrderStatusData method in UBSManagementServiceImpl class.
c93608416 fixed code small and bugs in getOrderStatusData method in UBSManagementServiceImpl class.
cadd1ce59 resolve conflicts during marge getOrderStatusData in UBSManagementServiceImpl class.
c81d26430 Merge branch 'dev' into editOrderStatusDataServiceMethod
cf27e6b57 Edit(fix)method getOrderStatusData in UBSManagementServiceImpl class.
72d316204 implementing rules for changing order's status
0186c974a implementing rules for changing order's status
12402a13a implementing rules for changing order's status
4991ba15c Merge pull request #490 from ita-social-projects/Fix_code_smells
99fe304c9 Merge branch 'dev' into Fix_code_smells
9d2c4dee0 Merge pull request #494 from ita-social-projects/change_city_capacity
a18d82c4c Merge pull request #493 from ita-social-projects/dev_add_certificate_code_to_certificate_dto
b4800bba4 changed capacity of city
b3bfd7e41 add certificate code to certificate dto
f4358bcc1 add certificate code to certificate dto
689a11a32 Merge pull request #492 from ita-social-projects/Link
3719112e7 Fixed issue with test.
d32ea8d00 Merge branch 'dev' into Link
5d3936ee4 Merge pull request #491 from ita-social-projects/refactoring_coordinates
f9e80343e formatter
e0e38bd44 fix vulnerability
33283c239 Refactored saving and getting info from Fondy payment system
88e9dc3cd fixed test
9029df063 fix blank line
2dcd252eb Added region
69d549e73 FIXED code smells in: SwaggerExampleModel.java AdminUbsControllerTest.java Language.java SaveChangeInOrderRepo.java AppConstant.java OrdersAdminsPageServiceImpl.java UBSClientServiceImpl.java SuperAdminServiceImplTest.java UBSClientServiceImplTest.java UBSManagementEmployeeServiceImplTest.java UBSManagementServiceImplTest.java RestClient.java RestTemplateLinks.java UserOrdersDto.java
4d0c31460 Merge pull request #488 from ita-social-projects/#3356_AdminCabinetController
f2d7439fd fixed bug with user_id
19d36ae0d Merge branch 'dev' into #3356_AdminCabinetController
b2a10489f fixed bug with user_id
fd3769b34 fixed bug with user_id
41387ca2b Merge pull request #487 from ita-social-projects/Link
7f61dadad Refactored some logic in Fondy Payment System
a9af9792c Merge pull request #486 from ita-social-projects/#3530_bugfix_empty_usage_field_after_using_certificate
9ff611a51  FIX "the date of use is stil empty after using certificate"#3
5c03e4037 Merge pull request #485 from ita-social-projects/region_to_location
5f0b2b06b Revert " FIX "the date of use is stil empty after using certificate""
267400356  FIX "the date of use is stil empty after using certificate"
89711701a Added region to location
6f1e59996 Merge pull request #483 from ita-social-projects/search_pat_one
d395761ef add formatter
659d39e65 Merge pull request #482 from ita-social-projects/#3356_AdminCabinetController
a4fbae9de add formatter
bee4118cf add search
14592c189 Merge branch 'dev' into search
5134ce641 add predicate
4778c3d28 Merge pull request #481 from ita-social-projects/#new_controller
609040575 added id column to UserWithSomeOrderDetailDto
02404bf6a add security
91fa13550 Merge pull request #480 from ita-social-projects/#3356_AdminCabinetController
2e412325b deleted useless imports
baaadfe88 added username and modified datetype
25b7842b7 Merge pull request #479 from ita-social-projects/#new_controller
68f415b98 fix bug 500 error
9a1c1ff26 Merge pull request #478 from ita-social-projects/#3356_AdminCabinetController
43f4f6196 added test for controller
96c815910 added test for controller
8116ed2a3 added Controller 'getAllOrdersForUser'
c7d74b4cb added Controller 'getAllOrdersForUser'
b2142cca7 Merge pull request #477 from ita-social-projects/#new_controller
242e3de5c I created new method deleteOrder for ClientController and wrote unit test for this method
967ff292d I created new method deleteOrder for ClientController and wrote unit test for this method
82ba802cb Merge pull request #470 from ita-social-projects/#3017_Bug_Expired_date_is_shown_instead_date_of_use_of_the_certificate_in_validation_message_when_used_certificate_is_entered
f8b7eefb4 Merge pull request #476 from ita-social-projects/Link
0b51bc522 Merge pull request #475 from ita-social-projects/#3521_update_order_employee_positon
cb5f0dd53 fixed code smells
34037cb8a When you try to change an employee, data is duplicated instead of updated.
ec22875ad Changed redirect to global version of site.
42435fc52 Merge pull request #473 from ita-social-projects/#3509_add_certificates_and_other_fields_to_order_dto
3e5ccfe6f Merge pull request #474 from ita-social-projects/#3506_refactoring_BigOrderTable
194c0647b Change logic for next fields: responsibleNavigator, responsibleDriver, responsibleLogicMan, responsibleCaller, responsibleManager, receivingStation. Needed to change the type of returned data from name to id Change capacity of titles filed in CustomTableView Table in database
478babb0e #3509 formatter
b6e5420a1 #3509 formatter
7e6cd1d31 #3509 formatter
c6eb43256 #3509 formatter
33efe028f #3509 formatter
178d8bb71 Merge remote-tracking branch 'origin/#3509_add_certificates_and_other_fields_to_order_dto' into #3509_add_certificates_and_other_fields_to_order_dto
86f39232e #3509 formatter
145c58064 Merge branch 'dev' into #3509_add_certificates_and_other_fields_to_order_dto
918d2f890 #3509 add certificates and other fields
3c6367b24 Merge pull request #472 from ita-social-projects/tests_refactoring
e639233e7 Refactoring and tests
953adba0f Merge pull request #471 from ita-social-projects/tests
9ce736548 Written tests for ClientController, ManagementOrderController, OrderController
610c68e15 Fixing bug which showed certificate expiration date instead of using date#2
8478507dd Fixing bug which showed certificate expiration date instead of using date
ea7b7d4fb add predicate
ab70ab858 checkstyle
b8bae9853 Merge pull request #469 from ita-social-projects/Security
747c2f2b8 Refactored security and fixed issue with error
bb8e7ff0c Merge pull request #468 from ita-social-projects/#3334_save_table_view
ab021ec48 fixed code smells
983e2173d Merge branch 'dev' into #3334_save_table_view
7634ff68e Added ability to save custom table view for users
e1f9ef55c updated task for another payment system
9f6d9f4f3 Merge pull request #466 from ita-social-projects/revert-460-#3305
4ccb59607 Revert "I fixed bug about the address duplication validation does not work in…"
9f6758be8 Merge pull request #465 from ita-social-projects/#3477
ff848d8c0 I added two new fields : orderDate and paymentStatus
946043604 I added two new fields : orderDate and paymentStatus
981c0d358 I added two new fields : orderDate and paymentStatus
92396491f I added two new fields : orderDate and paymentStatus
ab24b9dfe Merge pull request #464 from ita-social-projects/#3477
94032f7ef I added two new fields : orderDate and paymentStatus
6fd024941 Merge pull request #463 from ita-social-projects/save_order_if_user_do_not_want_to_pay_now#3498_dessdee
e6c6c6e2c Refactor OrderResponseDto.java and all usages to add 1 boolean field
b5688d23c Merge pull request #462 from ita-social-projects/bugWithTime
557dd18af Merge pull request #461 from ita-social-projects/#3495_TestsForTwoMethods_in_SuperAdminServiceImpl
fe5a0a692 fixed bug with changing time of export
7235a6dff Two tests for SuperAdminServiceImpl_AddedFormatter_#3
ef7681134 Two tests for SuperAdminServiceImpl_AddedFormatter_#3
ecda1ffa6 Two tests for SuperAdminServiceImpl_AddedFormatter
47e6a62d1 Two tests for SuperAdminServiceImpl
4b7dc5694 Merge branch 'dev' into search
fde9cc494 checkstyle
e5ce50491 Merge pull request #460 from ita-social-projects/#3305
15cab88d0 I fixed bug about the address duplication validation does not work in "Адреса вивозу сміття"
56312de98 I fixed bug about the address duplication validation does not work in "Адреса вивозу сміття"
88740f015 I fixed bug about the address duplication validation does not work in "Адреса вивозу сміття"
305460784 I fixed bug about the address duplication validation does not work in "Адреса вивозу сміття"
8578ce613 I fixed bug about the address duplication validation does not work in "Адреса вивозу сміття"
a6d5190fa Merge pull request #459 from ita-social-projects/search
581c9084c checkstyle
8cc8f221b fixed Search
19f870efe Merge pull request #458 from ita-social-projects/mini
6b119eda9 changed (Payment Status - "sticky = true ") changed (Comment for Order - "sticky = false ")
ca967c6d5 Merge pull request #457 from ita-social-projects/order_payment_by_points#3483_dessdee
5973c6d52 modify if statements to be able pay order by points
b138c1e7e Merge pull request #455 from ita-social-projects/AddressBugFix2
5197e614c fix address comment when it was null but from another branch with changelog 2
a43277b5b fix address comment when it was null but from another branch with changelog
a49e82045 Merge pull request #453 from ita-social-projects/redirect_liq
4849532a7 Fixed some issue with returned value from ubs user;
b51353ae6 Merge pull request #452 from ita-social-projects/redirect_liq
32f5461e4 Fixed some issue;
59e198fca Fixed some issue;
a0b2ae81c Merge pull request #451 from ita-social-projects/#3223
202a07616 fixed bug about 'amount_due' column displays negative value.
b4ffd4ee9 Merge pull request #450 from ita-social-projects/redirect_liq
239ad59a5 Fixed some issue;
2bdd83720 Merge pull request #449 from ita-social-projects/redirect_liq
1c8e4343f Formatter.
1156c7b96 Fixed test's.
47cdb276a Refactored method for getting UbsUser id.
02edcad20 Created sql script for delete all ubs user's;
530c9e706 Merge pull request #448 from ita-social-projects/AddressBugFix
7e9e3664c fix address duplication
6928f8b2c Merge pull request #443 from ita-social-projects/#3464_bug_405
dee384902 Merge pull request #447 from ita-social-projects/change_comma_for_dot_coma
47162ff13 change comma for dot with coma
feca391f9 Merge pull request #445 from ita-social-projects/dev_#3473_land_code_getDataForOrderStatusPage
15e64ec95 #3473 fix bug
ff43d9541 #3473 fix test
e14e7b28e #3473 land code
d0b0186ba Merge pull request #444 from ita-social-projects/redirect_liq
46eb8c3cf Merge pull request #434 from ita-social-projects/Status_LiqPay
31731aea3 Redirect for front.
4971a0387 fix bug
8a0385944 fix bug
01566c0a6 Merge pull request #442 from ita-social-projects/revert-440-revert-431-origin/#3177_fix_extra_comma
b78343888 Revert "Revert "Origin/#3177 fix extra comma""
fc8c76fda Merge pull request #439 from ita-social-projects/origin/#3416_searching_certificates
d0bcfc3a0 Merge pull request #441 from ita-social-projects/{UBSAdmin}_Bug_Fix/Tehlivets
9c66c1bb6 Merge pull request #438 from ita-social-projects/dev_#3468_confirmedAmountOfBags_dimaSannutski
c72860c84 Corrected filtering on number of orders. Corrected filtering on last order date. Fixed filtering on user registration date
4e48ae1c2 Merge pull request #440 from ita-social-projects/revert-431-origin/#3177_fix_extra_comma
d1af4efef Revert "Origin/#3177 fix extra comma"
9d4986fca fixed code smells
21f0164ec added ability to search data
f0e3c45ec #3468 confirmedAmountOfBags
3ab3554e2 #3468 confirmedAmountOfBags
e991d0f71 Merge pull request #437 from ita-social-projects/{UBS_Admin}Filtering_on_orders_count/Tehlivets
f1e6d7269 Merge branch 'dev' into {UBS_Admin}Filtering_on_orders_count/Tehlivets
ae40f6d77 Added filtering on count of user orders
93551478f Merge pull request #436 from ita-social-projects/BigOrderTable
c43eb82f2 Merge branch 'dev' into BigOrderTable
7845f748c add new filter
c20961945 Merge pull request #435 from ita-social-projects/origin/#3096_UpdateEmployee_ByOrder
df5fedb47 Fixed bug with "status": 500, "error": "Internal Server Error", "message": "Index 1 out of bounds for length 1",
2b88d238e Merge pull request #433 from ita-social-projects/#3227
20e2bfcfb Formatter
1ffdb308b fixed code smell's;
26151527d Refactored method that returns LiqPay button, now this method will be return order id and LiqPay button.
54a3a43ba added unit tests for UBSManagementServiceImplTest
d15fcbe43 Merge pull request #432 from ita-social-projects/{UBSAdmin}_chane_of_date_format/Tehlivets
1017b89f5 Changed dae format for filtering in user table
5a3981ff9 Merge pull request #430 from ita-social-projects/test#3436_dessdee
e89020dd2 Merge pull request #431 from ita-social-projects/origin/#3177_fix_extra_comma
8fbf7df0c Some additional changes in method getAddress logic
48d79155b Formatter changes
db844735a Fixed bug with extra comma in address field
61a14dc5d added unit tests for SuperAdminController and UBSClientServiceIm pl (#3436), created needed dto methods in ModelUtils, renamed createServiceTest() to more correct createTariffServiceTest()
ca13456dc added unit tests for SuperAdminController and UBSClientServiceImpl (#3436), created needed dto methods in ModelUtils, renamed createServiceTest() to more correct createTariffServiceTest()
79bf026d8 Merge pull request #429 from ita-social-projects/{UBSAdmin}FilteringUserTable
6eea3a4ec Fixed code smells and bugs
7febed34f Added filtering to the table (except on count of orders)
12fff6e85 Merge pull request #428 from ita-social-projects/origin/tests_for_certificates
ec7d6a3e4 -Added additional test for service level. -Changed name of class to CertificateCriteriaRepo from CertificateCriteriaCRepo
81104f222 Merge pull request #427 from ita-social-projects/fixCertificate2
80e8a717e another fix
0e458b9fd Merge pull request #426 from ita-social-projects/fixCertificate
71419c763 fix
364c59cd1 Merge pull request #424 from ita-social-projects/tests#3437
293472d41 Merge branch 'dev' into tests#3437
15f7ef94f formatter and checkstyle
c828577da Merge pull request #422 from ita-social-projects/FixOrderPaymentByPoints
893e877ec I add new tests and rename deleteService to editService
a209cd7f8 Merge pull request #423 from ita-social-projects/origin/#3428_filter_sort_certificates
6abe6a578 fixed code smells
760e60e19 formatter and checkstyle changes
5c40ad5e5 fixed code smells
58c8e2adc formatter and checkstyle changes
d542cf3e8 Added ability to sort and filter data on certificate page
1f5391a61 Merge pull request #421 from ita-social-projects/writetests
ed0b236dd after using certificate it has status USED
b749bcc8c wrote tests.
1f9e4bcde Merge pull request #420 from ita-social-projects/Status_LiqPay
90e6a7ac3 Merge branch 'dev' into writetests
491f25089 wrote tests.
b92386de8 Fixed test;
0a95b2669 formatter
184a1beab Added redirect to front page;
fb6e81a7c Merge pull request #419 from ita-social-projects/#3184
0e706f599 after formatter
29124fb67 fix bug
6a44c2f0e after formatter
84883db4f Merge branch 'dev' into #3184
f0f1d5ad1 fixing: unblocking relevant orders only
da98560d5 Merge pull request #418 from ita-social-projects/Status_LiqPay
436068408 Replace some method to the another directory;
ae31e791a Remove unused import.
82e6465fc Fixed some issue in method get liqpay status;
b385fc248 Merge pull request #417 from ita-social-projects/Status_LiqPay
0c3c61b3e Added some new field to Payment LiqPay.
e30f327bc Merge pull request #415 from ita-social-projects/dev_superAdminTest_CurierMethods
b823e76d5 formatter checkstyle fix
bd219c04f fix insert languages
e6c88d430 Merge pull request #416 from ita-social-projects/Liq_Pay_Status
f7673aad6 Fix code smell's
aea172e57 Merge pull request #414 from ita-social-projects/{UbsAdmin}Sorting_in_user_table
ea53ef5fd Checkstyle
b52013a22 Fixed code smell's
6792e10e1 Fixed code smell's
695566a7d Created methods for getting info about Payment from LiqPay and save it to db.
eb4a12541 Created methods for get info about payment status from Liq Pay.
e9642dc5c test for superAdminService createCourier and ...
f3a32bec0 Added sorting to the table
a8231061c Merge pull request #412 from ita-social-projects/fix405Error
de7e4f952 Merge branch 'dev' into fix405Error
a90fb32f7 fix bugs 405 in controller userProfile method update.
b7c0b2e4f Merge pull request #410 from ita-social-projects/superAdmin
ce805714a Added new method for edit all info in tariff page
0ec442d90 Merge pull request #409 from ita-social-projects/origin/add_some_tests
03fe0f898 some changes in Service
598d2c901 some changes in Service
bd9821f91 tests for superAdminService courier methods
2c1425495 Added 4 new tests for superAdminServiceImplTest
efe530e74 Added 4 new tests for superAdminServiceImplTest
3032f9d20 Merge pull request #408 from ita-social-projects/superAdmin
a07087eb2 Refactored 1 method of controller to get
72d855cf3 Merge pull request #407 from ita-social-projects/Validate_Liq_Pay
1d6637592 Fixed resultUrl
6bff0c623 Merge pull request #406 from ita-social-projects/Validate_Liq_Pay
58b1edab1 Checkstyle / Formatter
a19f75b12 Merge branch 'dev' into Validate_Liq_Pay
6369ecf72 Fixed methods for validation LiqPay
dc529a3a1 Merge pull request #405 from ita-social-projects/FixOrderPaymentByPoints
5f7f3b963 add payment only by points
8a11c3a52 Merge pull request #404 from ita-social-projects/#3184
555caf08b remove @Transactional
b49f56790 remove @Transactional
4032da396 after formatter again(2).
e2cbe0c0f after formatter again.
413ff2735 after checkStyle.
993c708fb after formatter
554235b78 I have created queries for changes in all orders at one time.
af30df071 Merge pull request #403 from ita-social-projects/collectOrderHsitoryThirdPart
d92df065e formatted code.
0ea4d6195 add test.
fa7d5efed fix code smell.
c1cedd280 Merge branch 'dev' into collectOrderHsitoryThirdPart
78f096e1e collect event about order third part.
7e8715f83 Merge pull request #402 from ita-social-projects/Big_Order_refactor
f55ecac32 Merge pull request #400 from ita-social-projects/{UbsAdmin}UniqueUsers_Tehlivets
0851b2312 refactor 1.2
ab3b1c369 Merge pull request #401 from ita-social-projects/superAdmin
dbd6d3ae9 Formatter
0745d803d Resolved Issue
8835f6c1e Refactored method for add translation.
8349e494e Added country code to user phone
48e38a673 Now returns unique users Now returns correct number of users
ae8dcb0a6 Merge pull request #397 from ita-social-projects/superAdmin
0987f1f01 Resolved conflicts
728b75f68 Resolved conflicts
87de0bd01 Resolved conflicts
284acd319 Merge pull request #396 from ita-social-projects/superAdmin
e7f751447 Resolved conflicts
71c3498f8 Added new functionality to Super Admin
d57827de3 Merge pull request #395 from ita-social-projects/(GreenCityUBS)_UsersForUsersTable
7cb1d056a Repo for returning user rewritten to CriteriaQuery Now repo returns page
7accd45c8 Merge pull request #394 from ita-social-projects/fixEmployee
e04d010bc Merge branch 'dev' into fixEmployee
826eb3469 fixed Employee
6c32b655f Merge pull request #393 from ita-social-projects/BooleanFix
da2920688 remove some unnecessary annotations
794bf6ed2 add new MediaType
1d440f78d Merge pull request #392 from ita-social-projects/BooleanFix
6b5b6d9c3 addViolationToUser controller fix
1ef7af641 Merge branch 'dev' into BooleanFix
fadacd7f2 Merge pull request #391 from ita-social-projects/superAdmin
b6d20f6c7 Added locationId to response;
97bf768f7 Merge pull request #390 from ita-social-projects/superAdmin
243f18bf5 Added new sql query
a3575e4c0 Added new sql query
fd6df6ffa Merge pull request #389 from ita-social-projects/change_filtered_for_getParametersForOrdersTable
0541100f8 add PaymentStatus HALF_PAID
84edd1dae change filtered
1d9879b07 Boolean fix
29a339249 Merge pull request #387 from ita-social-projects/superAdmin
1ca8fd782 Fixed trouble when user try to create location
dd3e17b40 Merge pull request #385 from ita-social-projects/(GreenCityUBS)_UsersForUsersTable
5bc7d09bb Merge branch 'dev' into (GreenCityUBS)_UsersForUsersTable
bae1ea807 Merge pull request #386 from ita-social-projects/superAdmin
20787014a Added translation for Location
8e90aa74c Resolved merging conflicts
0963bdc00 Merge branch 'dev' into (GreenCityUBS)_UsersForUsersTable
54d7f54ce Added controller,service and repository for obtaining users for table Added column date_of_registration to users table
8e2e80666 Merge pull request #384 from ita-social-projects/OrderPaymentProblems
154e40fb9 Fix in Order from boolean to Boolean; add new MediaType in addUsersViolation controller
9e8039931 Merge pull request #383 from ita-social-projects/superAdmin
ccc6df379 Fixed tests
c94c18938 Fix in Order from boolean to Boolean; add new MediaType in addUsersViolation controller
8518ad364 Added language code to response.
c2f12442b Merge pull request #380 from ita-social-projects/superAdmin
6f43a6012 Merge pull request #382 from ita-social-projects/#3184
c572a9e96 after formatter
d061c6086 Merge branch 'dev' into #3184
694550efb I'm trying fix unexpected behavior related with blocked order
7f449b5bd Fixed test;
7b831ac65 Fixed test;
f4715524d Merge pull request #381 from ita-social-projects/#3184
04af73a2f remove bug
a59e4bdf7 Merge branch 'dev' into #3184
714a32fea moving from User to "restClient.findUserByUUID"
2c69e0e91 Formatter and checkstyle
37691b016 Merge pull request #379 from ita-social-projects/#3184
588c2da61 Merge branch 'dev' into superAdmin
1860a4fdd Added new logic to Super Admin and location
6d4e7d3b3 fix bugs
5190d9a86 Merge branch 'dev' into #3184
349a866f0 after formatter
65c3f969b small fix
b336450e8 small fix
dd0ddab40 Merge pull request #378 from ita-social-projects/#3184
f5366139d after formatter
e181a74ea Merge branch 'dev' into #3184
f34379a37 implementing blocking/unblocking orders
da78e73e6 Merge pull request #377 from ita-social-projects/superAdmin
6a3f3a73b Added id location instead of location name
af71069e8 Refactored logic in editing service in super admin
91e0664a7 Merge pull request #375 from ita-social-projects/superAdmin
39ca89ec0 formatter
37065434d Refactored functionality for creating Service
62b7b3708 Merge pull request #374 from ita-social-projects/#3184
2079595f8 remove code smells
33a6f573d add to order field "blockedBy"
4e7a511d5 fix mapper
70025e5b4 after formatter
f59c338e4 Merge branch 'dev' into #3184
f0e341406 some changes for sorting and filtering
e26ab8bec Merge pull request #373 from ita-social-projects/Big_Order_Table
b1c4ff5b9 sonarcloud
be64abda0 formatter
3dfc1fbf9 Merge branch 'dev' into Big_Order_Table
aa4136616 fixed bug with field EmployeeNameByIdPosition(excluded some fields with EqualsAndHashCode in Employee and Order classes ) and realised add Employee position in BigOrderTableDTO.
cd6b7c900 Merge pull request #369 from ita-social-projects/#3184
b3f14ceab Merge pull request #372 from ita-social-projects/superAdmin
45dabb40f Added functionality for editing tariff by id.
2e9e5e560 Merge branch 'dev' into #3184
8cd34e85a List<Users> add to ColumnState as the "abilityToChange"
617c780d7 Merge pull request #371 from ita-social-projects/superAdmin
542cfc54e Merge branch 'dev' into #3184
df6245ceb after formatting
cbf142abe add tag filtered
ee57fd65a Added functionality for delete tariff by id.
be29e84a5 Merge pull request #370 from ita-social-projects/superAdmin
3d23bbd19 Added functionality for get info about all tariff.
13e25c209 after formatter
84c9dfff7 after formatter
e9f3b160f column names for sorting
95abb65f5 Merge pull request #368 from ita-social-projects/fix_code_smell_order_history
295c148f4 Formatter fixed.
8ada6ca69 Merge pull request #367 from ita-social-projects/Big_Order_Table
2a10b774d Fix code smell in tests.
07182f2d6 add payment and dateOfExport , timeOfExport
4d820da0c Merge pull request #366 from ita-social-projects/AddSomeDocumentationAndElse
1809c1807 add payment and dateOfExport , timeOfExport
c62680e94 add payment and dateOfExport , timeOfExport
7e314f254 remove some unnecessary code
889410613 Merge pull request #365 from ita-social-projects/superAdmin
2bf6268bf Added functionality for creating new tariff.
f5427fa39 Added functionality for creating new tariff.
a0908ae93 fix relation order-blockedEmployee
30d755a91 ch-log to db add column blocked_by_employee to order
c91b245a0 columnName + name for sorting
a61fbe09f Merge pull request #364 from ita-social-projects/orderHistoryAboutViolation
70c9ca7bb Merge branch 'dev' into orderHsitoryAboutViolation
d4a734b79 Add logic in project about order history(events).
d115b5edb Merge pull request #363 from ita-social-projects/superAdmin
5b73f2890 Formatter
69cf1e218 Merge branch 'dev' into superAdmin
7419832bd In service and db added field who was doing last editing, and when
76f3d4665 Merge pull request #362 from ita-social-projects/#3184
6240055d1 Merge branch 'dev' into #3184
a84bf57c5 revert
0c7164f74 Merge pull request #361 from ita-social-projects/#3184
b2e72ee00 after formatter
f24911b4d Merge branch 'dev' into #3184
b8c17b56d change column's name again
bfa09de80 Merge pull request #360 from ita-social-projects/#3184
d0d9a6cb0 ubs orders table
d181a8ee5 Merge branch 'dev' into #3184
73eb00bbd ubs orders table
7ec4ab7d6 Merge pull request #358 from ita-social-projects/#3184
d3e78d930 Test
cf8bdff88 Test
ecbb29eed fix changelog to db
5a01993e2 Test
880dd7f7f Test
38edaa8be remove bugs
48917d0ef for testing(remove)
b1ee9ca0d for testing
a9a3327bb Merge branch 'dev' into #3184
03c4723f9 after formatter
5703351e1 after formatter
a359ff88b create changeLog to db to create a field "dateOfExport" in Order
de404c599 some change for develop stage
b2d94b483 some change for develop stage
0aa7a3fc7 some change for develop stage
180e3f73e Merge pull request #353 from ita-social-projects/FixAddressComment
654725d2a Add field "comment to OrderAddressDtoRequest and other little changes"
3430a8305 some change for develop stage
0879b97ef Merge branch 'dev' into #3184
40ad8044d some change for develop stage
5bed2f32c Merge pull request #351 from ita-social-projects/3314
c40da5fc1 Merge pull request #350 from ita-social-projects/#3327
58a8b7e3b formatter
4b70925fc Merge branch 'dev' into 3314
9b83243ab add test
67e72aa8c Refactor big order table
729c75914 Merge pull request #349 from ita-social-projects/controllerForSurcharge
90550fdaa fix typo
dd534f343 create controller for getting order info data about surcharge
e2b3defd0 Merge pull request #348 from ita-social-projects/#3184
990efbb6b some change for develop stage
b181961a3 Merge pull request #347 from ita-social-projects/#3320
cacb5c353 I have changed getSecondPageData() & createUserByUuidIfUserDoesNotExist()
8121da479 Merge pull request #346 from ita-social-projects/#3318
5ccf6de70 Change columns name
922f3d96a Merge pull request #345 from ita-social-projects/superAdmin
be08ac766 Added edit controller and Service for TariffService
94bafe13c Merge pull request #344 from ita-social-projects/FixSaveOrderAddress
d06e514c2 Fix Save order address validation
55b32be2a Merge pull request #343 from ita-social-projects/#3301
933619491 Merge pull request #340 from ita-social-projects/listUbsToSingle
2497b5d42 Add Test deleteTariffService and deleteTariffService in Controller
6c6adfbda Merge pull request #336 from ita-social-projects/#3184
1f56e45d6 add code to block order for changing
a4da7b116 add code to block order for changing
dd903f1e5 add code to block order for changing
ee8d1f917 Merge pull request #342 from ita-social-projects/Add_columns_name
0bafeb216 Add name parameter
caccc9c0c Merge branch 'dev' into #3184
4fae0178e Merge pull request #341 from ita-social-projects/superAdmin
4bf8cdccc Added full price to first page in order page, instead of price now we will get full price;
e675287ea small fixing
710742351 Merge pull request #338 from ita-social-projects/#3288
afb53b2cd Merge pull request #339 from ita-social-projects/AddSortingByColumns
75aa0e9a4 Add search query
7462c1ad0 Merge branch 'dev' into #3184
8ab946902 after formatter
c868b4970 refactor service
5b9206e00 Add sorting by Columns to getAllCertificates controller and fix some tests
67e21fe53 Add check for invalid column and sort type
d3c5ebaa1 fill methods body
f97c8adfe fill methods body
15415b555 Merge pull request #337 from ita-social-projects/superAdmin
e9b83b3b3 Added field Id to GetTariffServiceDto
f6ba51168 fill methods body
0ca038429 Merge pull request #335 from ita-social-projects/superAdmin
cf7daf37f Fixed injection
694943034 Formatter
a5585f5ee checkstyle
0a61c320f Merge pull request #334 from ita-social-projects/unreadenNotification
e5696e788 Created delete controller and delete service for Super Admin Controller;
5f3b16f10 formatter
ee8778a25 add tests
ef97b5b8a add separate controller for counting unreaden notifications
f131e211b Merge pull request #333 from ita-social-projects/#3288
d0e01e77d Fix typo
db1bb6be1 Merge pull request #332 from ita-social-projects/OrderInfoPage
e27792ea4 changed data retrieved from user to UBSuser
81da1348b Merge pull request #330 from ita-social-projects/OrderInfoPage
5a948f020 fixed getting user details from address, not order info
9b8a897d8 Merge pull request #328 from ita-social-projects/superAdmin
0116fc490 Merge pull request #319 from ita-social-projects/OrderInfoPage
9d4bcc088 Merge pull request #329 from ita-social-projects/#3282
298108800 after formatter
2a7365ffb Merge branch 'dev' into #3282
9edb5bb40 kostyl
60ab5780a fixed nullpointer exception in controller
a66736394 fixed url in test;
747017acb Added service, and controller for get information about tariff service, also added unit test's for controller and service;
6e4d0ed4c Merge pull request #326 from ita-social-projects/#3282
c810472ef Merge pull request #327 from ita-social-projects/#3288
1ebf8b183 Merge remote-tracking branch 'origin/dev' into #3288
ccf7f869d Refactor method and controller that returns orders info
2563a677e Add filter logic
a17de28b9 Change ApiPageable
17ce3fc44 set current user's email
e862c14c0 Merge pull request #324 from ita-social-projects/orderHistory
e50462bf1 Merge pull request #325 from ita-social-projects/unreadenNotification
dcb3792dc change unreaden notifications for all notifications instead of current page
99e4ad561 code smell in OrderHistory.
e48faf4ab Merge branch 'dev' into orderHistory
3d72ad031 Add logic about OrderHistory,Add controller AssignEmployeeForOrderDto,fixed test and wrote tests.
3f92bac27 Merge pull request #320 from ita-social-projects/superAdmin
47ab89b4c Merge branch 'superAdmin' of https://github.com/ita-social-projects/GreenCityUBS into superAdmin
e2efc2683 Fixed code smell's
63c06bc36 Merge pull request #323 from ita-social-projects/revert-321-Liq_Pay
8fd7028df Revert "Fixed validation LiqPay;"
208bea38f Merge pull request #322 from ita-social-projects/unreadenNotification
d894cecbb Add unreaden notifications for Notification controllers
ca9745527 Merge pull request #321 from ita-social-projects/Liq_Pay
aab268804 Fixed validation LiqPay;
3ad03ba78 Fixed code smell's;
aba132dee Merge branch 'dev' into superAdmin
29b0ab008 Added functionality for super admin page: Add Service, tests for this functionality have also been written;
345301294 Revert "removed translation which caused error"
32304267c Merge pull request #301 from ita-social-projects/location_popup
32f5b4014 fixing codesmell
50cce3662 checkstyle
2a189c2d5 the last fixes
19a8d0db5 Merge pull request #316 from ita-social-projects/revert-315-#3282
977755ce7 Revert "#3282"
21bed55d0 Merge pull request #315 from ita-social-projects/#3282
90f53cf27 after formatter
44551ead4 add ubsUser when User open UBS_page
c3293540a Merge pull request #314 from ita-social-projects/OrderInfoPage
d26162c9b removed translation which caused error
b9be43fc4 Merge pull request #313 from ita-social-projects/OrderInfoPage
153566e43 fixing controller
b20ebbd60 Merge pull request #312 from ita-social-projects/#3282
f36dd2ad5 remove unnecessary method
3a4959a04 Merge pull request #311 from ita-social-projects/#3282
f869efd63 remove smells
9492bb8af after formatter
beeb8e348 Merge branch 'dev' into #3282
4913feef5 change logic of filling Users fields, when somebody creates order
3e23713b3 Merge pull request #310 from ita-social-projects/#3282
b15a1b277 Merge pull request #309 from ita-social-projects/OrderInfoPage
8a5286a7d some improvement 2
c7443c74a Merge branch 'dev' into #3282
0bbe231be some improvement 2
e84e929b7 formatted code
163bb8ddf refactored methods, fixed controllers, added table of translations for orderstatus
10afdef16 Merge pull request #308 from ita-social-projects/violationRework
22345ed8b fix codesmells
54ec157a5 rework violation storage, change two queries, fix tests
c6879c6f7 fixed status code 500 thrown by controllers
22928765b hot fix
de7caefe3 change two queries in userRepository and change addUserViolation, deleteUserViolation, violationDtoDetailsByOrderId tests
3a49c2eff Merge pull request #307 from ita-social-projects/#3282
9bbdf6b10 Merge branch 'dev' into #3282
0c6a0eb36 some improvement
afcea2a6e Merge pull request #306 from ita-social-projects/#3282
c0a9253b8 fix sonar bugs
0a931f6fc fix test
9c287a40a change userUbs logic
1a02cf19b Merge pull request #305 from ita-social-projects/fixPafeableDto
5142cb444 Fix PageableDto return type
b03625220 Merge pull request #304 from ita-social-projects/revert-302-addEventsLogicToOrder
c55acca50 Revert "Adding logic to a project on order history and create controller assignEmployeeToOrder and fixed tests and wrote some new tests about order history."
72cb2160f Merge pull request #302 from ita-social-projects/addEventsLogicToOrder
004701191 Adding logic to a project on order history. 1)Add to Employee entity and User relationship one-to-one.
7d27a9752 Adding logic to a project on order history. 1)Add to Employee entity and User relationship one-to-one.
c18915ec2 Adding logic to a project on order history. 1)Add to Employee entity and User relationship one-to-one.
89a7c7908 Merge branch 'dev' into addEventsLogicToOrder
24fe0633e Adding logic to a project on order history. 1)Add to Employee entity and User relationship one-to-one.
c241762c0 final final final fixes
14d589d1e test commit
a33d63284 final final fixes
2b1008b5e Merge branch 'dev' into location_popup
1ccaea168 final fixes
4e6950189 Merge pull request #300 from ita-social-projects/code_smells
12cbb84f9 new variable
94dc5d864 formatter and check
edcb1c525 optimize boolean
61af5af8e fix code smell, optimize imports
9b6b76f88 Merge pull request #299 from ita-social-projects/code_smells
0b7e2d719 code smell, return import
b1dcfcaa2 code smell, deleted import
ad26eee5f code smell
776f74cbd Merge pull request #298 from ita-social-projects/#3184
3799726dd Merge branch 'dev' into #3184
9eaba3310 change time format
abd8403b1 change time format
9609e92be Merge pull request #297 from ita-social-projects/test_fix
03b0f18f6 fix bug
75d1c7842 Merge pull request #295 from ita-social-projects/#3184
42d59f1fc remove codeSmells
1f1d120d9 remove codeSmells
edd0913d7 sorting columns by belonging to theme have been added
3c1b919ed sorting columns by belonging to theme have been added
61de50c40 Merge pull request #294 from ita-social-projects/newreason
7da0b56f2 add put controller(clean cod smell2)
6e5cb5448 add put controller(clean cod smell)
3aa87f1db add put controller
4f7ddf41c Merge pull request #293 from ita-social-projects/Liq_Pay_Recive
b99d266fd formatter
eaaa73051 Added Test for receive payment from LiqPay;
6bf3d42d0 Fixed trouble with error in controller;
3948a3d56 Merge pull request #292 from ita-social-projects/Liq_Pay_Recive
d6c58002e Fixed trouble with controller;
9a5f51ab2 Merge pull request #291 from ita-social-projects/Liq_pay
1f43c856c Added Order Controller Test
ea924cf16 Refactored logic in method validate payment, added test for this method;
dfed2e8c8 Merge pull request #289 from ita-social-projects/OrderInfoPage
94328a538 corrected typo
ae003665c resolved conflict and formatted code
41af3d6bc added controller for user to retrieve data about all his orders
0876b79be Merge pull request #288 from ita-social-projects/#3246
3a523d4c5 Add tests for NotificationController
7a03ae02d Add tests for NotificationService
1b4e2c083 Merge pull request #287 from ita-social-projects/Liq_pay
090a6ae04 checkstyle;
947bb4a42 Added server url for redirecting user to Green City site;
c393457f5 Added Test that try save order in DB;
682e30e0c Merge pull request #284 from ita-social-projects/OrderInfoPage
37f5fd8a7 Merge pull request #286 from ita-social-projects/#3235
8bcd97ced Fix null response
69ffb20d6 removed unused import
5ef105f75 formatted code
2e73da51d Merge branch 'OrderInfoPage' of https://github.com/ita-social-projects/GreenCityUBS into OrderInfoPage
12d0b7067 fixed codesmells
8f4dc8094 Merge branch 'dev' into violationRework
8d1c14bc9 add some logic in UBSManagementServiceImpl
b55d5de17 Merge pull request #285 from ita-social-projects/#3235
5105964a5 Change logic for notifications at user page
51ada5756 formatted code
0057cd3fa added controllers to get orders of user and order related data for filling page
413d3198d Merge pull request #283 from ita-social-projects/#3184
5eb2ca62e Merge pull request #282 from ita-social-projects/#3184
1b760c2e0 revert
fea45aa48 revert
3b3dbb348 Merge pull request #281 from ita-social-projects/#3184
f7d9ec2f8 Merge branch 'dev' into #3184
5b236ab09 property orderId to order_id
83df4d24f Merge pull request #280 from ita-social-projects/#3184
398fc756a Merge branch 'dev' into #3184
12909fb5b refactoring DTO
52565004b Merge pull request #279 from ita-social-projects/#3184
64f9267fd after formatter
f89402b7e Merge branch 'dev' into #3184
b50ac03d8 change dto
7d9793a66 Merge branch 'dev' into violationRework
7bf179756 Merge pull request #278 from ita-social-projects/#3184
3507213b1 add Element Collection to Violation and some refactor in User
c656dbadc delete codeSmells
ad1714d68 fix other mistakes)
203d67366 fix one mistake
523162a21 Merge pull request #277 from ita-social-projects/#3235
1b4a9f3c6 Merge branch 'dev' into #3184
dfb1a825d optional fields have been added
28249927e Add controllers for user notification page
44cf0faa6 Add changeset for user_notification
e4952611b Merge pull request #275 from ita-social-projects/#3184
41b698634 Merge branch 'dev' into #3184
a057e8f69 Add some trial methods.
b686bdefe Add some trial methods.
1d971cd68 Merge pull request #276 from ita-social-projects/Liq_pay
c8db90074 Add some trial methods.
4c4f88e2c Add some trial methods.
5171baad3 Merge branch 'dev' into Liq_pay
feca053ae Add some trial methods.
e2ad7b004 Fixed sum to pay to correct value;
1f9e81dcf Add some trial methods.
c241a91dc Add some trial methods.
3aa647cd6 Merge branch 'dev' into #3184
746f2f92c Add some trial methods.
a8357bba2 column's names according to change request
70e4cb308 Merge pull request #272 from ita-social-projects/#3184
7647dfc68 code smells have been killed
52dc2b5f2 code smells have been killed
54bd6deb7 after formatter
5eaa51ffb entities have been commented
5ea867e4f entities have been commented
2a6999747 entities have been commented
0dba87b4c entities have been commented
2af8133c9 entities have been commented
40042c5fd Merge branch 'dev' into #3184
6a6a6f904 entities have been commented
8b31bd2bd Merge pull request #270 from ita-social-projects/Liq_pay
5924a982c test fix
01030bebe Merge pull request #273 from ita-social-projects/location_popup
173afc9ef fixes
cad36b677 fixing problem
8fc75d1c0 deleting mappers
1d6e80e81 DtoMappers have been added
783f182c2 code smells have been removed
8ec8aa6ce code smells have been removed
0a36801ba code smells have been removed
a01393cde after formatter
632b00d91 create entities
5714a99d2 Merge branch 'dev' into Liq_pay
367c4dac4 Merge branch 'dev' into violationRework
24e8770a3 little changes
1b526f1ab Merge branch 'dev' into #3184
f0ec9a8e4 Service layer has been created.
96994d987 Merge pull request #271 from ita-social-projects/#3184
2fa415a7c hard code
860f80182 Merge branch 'dev' into #3184
31eed785b hard code
b4af0af90 Fixed code smell
0368b5754 Created LiqPay functionality;
ee969c95b Merge pull request #269 from ita-social-projects/#3184
a540e8f21 hard code
17414482e hard code
b6009e9e7 change pom file dao dependency scope runtime to compile
34ea2355c only hardCode
9b8ce9c42 only hardCode
380917790 after checkstyle
4b79002f0 after formatter
1e66453a5 New controller has been created
1ede449f6 add elementcolection in Violation
91d3901e7 Merge pull request #268 from ita-social-projects/SendNotifications1#2969
bcc9193e1 Merge branch 'dev' into SendNotifications1#2969
041a0c8e0 Formatter+checkstyle
8ad2d4f86 Merge pull request #266 from ita-social-projects/#3174
d8c489295 Merge branch 'dev' into #3174
64df27895 fixing a bag
d0f0d7240 Merge pull request #267 from ita-social-projects/fix_sql_injections
eb13f129c Fix sql injections
7a6d81e9b after formatter
2b833302a fixed test
37b2b1229 after formatter
5a5f30781 disabled test
98150e436 after checkstile
df5b0b536 Creating ubsUser when User fills in profile
2b7c0cd08 Merge pull request #265 from ita-social-projects/location_popup
21b5b5071 fixed problems with relations
b790ee20a Merge pull request #264 from ita-social-projects/Sviatka322-patch-3
a13b30b97 Update pom.xml
dded7590b Merge pull request #263 from ita-social-projects/historyForOrder_#3048
2f4e60837 Add into class OrderController method getOderHistoryByOrderId(@Valid @PathVariable("orderId") Long id). Add into class OrderControllerTest test method testGetOrderHistoryByOrderId(). Add class EventRepository and method in it like:findAllEventsByOrderId(@Param(value = "OrderId") Long id). Add class EventDto. Add into class ExceptionHandler method like:handleEventsNotFoundException(EventsNotFoundException ex, WebRequest webRequest). Add into class UBSClientServiceImpl method like: getAllEventsForOrderById(Long orderId). Add into class UBSClientServiceImplTest three test methods like: testGelAllEventsFromOrderByOrderId(). testGelAllEventsFromOrderByOrderIdWithThrowingOrderNotFindException(). testGelAllEventsFromOrderByOrderIdWithThrowingEventsNotFoundException().
6fbc9b182 Merge pull request #238 from ita-social-projects/location_popup
acf447af5 Merge pull request #262 from ita-social-projects/Violations
046a147c8 Added addViolation, updateViolation and modified deleteViolation
a30de5ea0 Merge branch 'location_popup' of https://github.com/ita-social-projects/GreenCityUBS into location_popup
35d9586d0 improved coverage
e70db4335 Merge branch 'dev' into location_popup
ffc0df551 added test controllers for frontend
d15c6d06d Merge pull request #261 from ita-social-projects/CodeSmells_#3160
bee5b07b9 Merge pull request #260 from ita-social-projects/fix-bags-3159
a53745fb9 broke 1 method into 2 methods for readable
63dea0a4d Fixed CodeSmells #3160
fd22ff572 fixed code smell
3508a6372 fixed second bug
42d9b91e6 Merge pull request #258 from ita-social-projects/fix-bags-3159
bcb0b93fe fixed code smell and test failed
56f0764b2 fix-bags-3159
589404bdc fix-bags-3159
bcdc165c3 fix-bags-3159
4cd113984 Merge pull request #257 from ita-social-projects/bugsViberbot
1deab6c93 fix bugs interruptedException in TelegramService and ViberServiceImpl
638066ba1 fix bugs interruptedException in TelegramService and ViberServiceImpl
eb14e5ac9 fix bugs interruptedException in TelegramService and ViberServiceImpl
4306f4202 fix bugs interruptedException in TelegramService and ViberServiceImpl
1968c501c fix bugs interruptedException in TelegramService and ViberServiceImpl
94f1765be fix bugs interruptedException in TelegramService and ViberServiceImpl
286cc2013 fix bugs interruptedException in TelegramService and ViberServiceImpl
0ba8ddc0c fix bugs in TelegramService and ViberServiceImpl
78a7282d0 Merge pull request #256 from ita-social-projects/Call_Optional#isPresent()_before_accessing_the_valueBug#
3553677a1 some changes.
53f57acf4 Merge pull request #255 from ita-social-projects/Call_Optional#isPresent()_before_accessing_the_valueBug#
c686ef8da fixed unit test.
f174307e5 fix bug on UBSManagementServiceImpl in method updateAddress.
aea343917 Merge pull request #254 from ita-social-projects/bugNullPointerUserServiceImpl#3133
8025859bd delete some code and fix bug.
57d785e05 formated
79e8ee287 fixed tests
068c31e90 fixed small bug
3256fa2d7 fixed more code smells
8fde24714 fixing code smells
79d1d225e Add test on UserServiceImpl in method saveCurrentAddressForOrder for Address not found Exception.
5e4bcd3bb Fix bug NullPointerException on UserServiceImpl in method saveCurrentAddressForOrder.
c315e68e5 Merge pull request #251 from ita-social-projects/RollBeckAllValuesFromTableRepo
6f8e97518 Merge branch 'dev' into RollBeckAllValuesFromTableRepo
c0531a5cc Merge pull request #252 from ita-social-projects/fixQuery
b449b2587 fix query
d7587a4ab Roll beck AllValuesFromTableRepo
5f74411b1 Merge pull request #249 from ita-social-projects/fixQuery
15403eea4 fix query
a5b4dfa23 Merge pull request #248 from ita-social-projects/RefactoredSqlString
b003b8e46 Refactored not working method
9815ff738 Merge pull request #247 from ita-social-projects/RefactoredSqlString
f57285c8d Formatter amd checkstyle
02aaee1f1 Refactored SQL String in AllValuesFromTableRepo(findAllWithSorting)
27641ef42 Merge pull request #245 from ita-social-projects/fix_vulnerability
3af3fe4a8 deleted unused imports
e793a492f fixed sql injection vulnerability
4e6b6672b Merge pull request #236 from ita-social-projects/viber_add_tests
4848de7a0 Merge pull request #244 from ita-social-projects/3048_orders-history
80aa62660 add ch-add-new-table-events
ee4a7d728 Merge pull request #243 from ita-social-projects/Sviatka322-patch-2
5aa1d7555 Update pom.xml
039e2525c Merge pull request #242 from ita-social-projects/Sviatka322-patch-1
1d5deb8a4 Update main.yml
fb4479a0e Merge pull request #241 from ita-social-projects/3048_orders-history
9cce896be add entity Event + fix conflict
f4d677360 Create new table Event
85b67fefe formatter fixes
b75522894 Merge branch 'dev' into location_popup
d333d8bee Merge pull request #240 from ita-social-projects/Azure_fix
2b45ee74c Fixed trouble with azure cloud
e799981f5 added controllers and services for location pop up
47d2d07fb Merge pull request #237 from ita-social-projects/#3109
68bf5842c Fixing test
0c55196d3 A bug related to saving ubsUser has been fixed.
3246009dd tests
0b15dd057 Merge pull request #235 from ita-social-projects/SendNotifications1#2969
5e8a284bd Merge branch 'dev' into SendNotifications1#2969
4ba6755ad Formatter+checkstyle
fd6520b20 Fixed bug
d7f92750b Merge pull request #233 from ita-social-projects/Client_Controller_GET_Error_Stepan
44cf6c391 Merge pull request #234 from ita-social-projects/test_coords
7ffe9c0f7 added controller test
c5f2befe9 fix code smells
af99f2d5b fix
150b8bef7 formatted code
906fa9eb0 Merge branch 'dev' into test_coords
b47c86d7f refactored method and wrote tests
a46967885 Added default currency to fix NullPointer when checking order with no payments
00480808e Merge pull request #229 from ita-social-projects/UnexpectedErrorWhenMakingErrorRequest_Stepan
07f15ce63 Error 500 on "/error" request fixed
5a3187310 Error 500 on "/error" request fixed
9b8568cba Error 500 on "/error" request fixed
346adee29 Merge pull request #217 from ita-social-projects/tests#3064
bfef95cf4 Merge pull request #228 from ita-social-projects/SendNotifications1#2969
8b3317301 Merge branch 'dev' into SendNotifications1#2969
9166b12a7 Fixed bug
125cf4911 Merge pull request #227 from ita-social-projects/task#2851
dd95e06f8 delete language from order-details controller stage 3
578585431 Merge branch 'dev' into task#2851
5197f45c4 delete language from order-details controller stage 3
bf9260085 Merge pull request #226 from ita-social-projects/SendNotifications1#2969
1cc1b5bc6 Merge pull request #225 from ita-social-projects/getOrderBagdetailsTest#3072
41b9f8c80 checkstylefixed
5fbc596ff checkstyle
cda5a28a5 Merge branch 'dev' into SendNotifications1#2969
d856f3c43 Removed unused column
e4a190639 Merge remote-tracking branch 'origin/getOrderBagdetailsTest#3072' into getOrderBagdetailsTest#3072
e76e56ba6 formatter
d68919067 Merge branch 'dev' into getOrderBagdetailsTest#3072
e9d86d020 Merge pull request #224 from ita-social-projects/#3074
363a2930f add three tests
083bba53c Add tests to UBSManagementService
324e8508d Merge pull request #222 from ita-social-projects/SendNotifications1#2969
2c3b62ca7 Merge pull request #223 from ita-social-projects/task#2851
215fe7197 delete language from order-details request stage 2
52a8b4295 Merge branch 'dev' into task#2851
bcc0be874 delete language from order-details request
c978449bd Optimize imports
76b0dfbb8 Merge branch 'dev' into SendNotifications1#2969
7e8339468 Added tests for telegram and viber services.
2d8ff1bcf Merge pull request #221 from ita-social-projects/#3054
79b33c626 Merge branch 'dev' into #3054
9d8e5c137 Fixed trouble with conflict in UBSManagementServiceImplTest
00bd73e2f Was checked code with formatter and checkstyle;
8ecfcce77 Was write testing code for next Class: 1) TokenServiceImpl(method testPassTokenToCookies) 2)UBSManagementServiceImpl(methods: GetAllUndeliveredOrdersWithLiters, AddPointsToUser);
c32b4c940 Merge pull request #212 from ita-social-projects/tests#3049
1300d1172 Merge pull request #220 from ita-social-projects/task#2851
a6be3acd6 Merge pull request #216 from ita-social-projects/USBClientServiceImpl_tests_S
355909701 Added test to increase coverage
d1c4486e8 Added test to increase coverage
5d9623bd6 Fixed unit tests and added logging
05517803e previous result
301acb0e2 Merge pull request #218 from ita-social-projects/#3059_refactor_swagger_responses
28db1f473 fix typo
16e0aa524 Merge branch 'dev' into #3059_refactor_swagger_responses
198480d11 Refactor api responses
bc8cb6a9d change azure dependency
fa34326b4 Changes in EncryptionUtils Added field for EncryptionUtil in UBSClientServiceImpl Added tests for three methods from UBSClientServiceImpl
962c1990d Changes in EncryptionUtils Added field for EncryptionUtil in UBSClientServiceImpl Added tests for three methods from UBSClientServiceImpl
c902bccf8 Merge branch 'dev' into USBClientServiceImpl_tests_S
b87716aab Merge branch 'dev' into tests#3049
dce5d9549 updated pom in service
158281e3f Merge pull request #215 from ita-social-projects/#3056
e5ad90917 resolved conflicts
a462420da updated azure version in service pom
b390d78ec delete unnecessary import
d46061b38 Added bots notifications
7d06d6ba7 Merge branch 'dev' into #3056
d054d2cac Merge pull request #219 from ita-social-projects/azure_dependency
09d1a8293 fix dependency
81fcd5860 change azure dependency
3ac771bef updated pom in service
0517c8ff3 refactored api response statuses
ec0f9b428 Changes in EncryptionUtils Added field for EncryptionUtil in UBSClientServiceImpl Added tests for three methods from UBSClientServiceImpl
e309bbaac Changes in EncryptionUtils Added field for EncryptionUtil in UBSClientServiceImpl Added tests for three methods from UBSClientServiceImpl
d180d7797 Changes in EncryptionUtils Added field for EncryptionUtil in UBSClientServiceImpl Added tests for three methods from UBSClientServiceImpl
079551d60 just for commit
416c272f3 checkstyle
353c11cd4 previous number was to short
40df7f32e change size valid phoneNumber in db
a6ee9641a implementing phoneNumber validation
c61448603 Merge pull request #213 from ita-social-projects/change_and_delete#3047
63d29c4e0 Merge pull request #214 from ita-social-projects/#3055_check_address_exist
0952cbd3c fixing code smells
fc25d682d refactoring for less code smells
0c1b45cca Fix add deleted address
10be6e814 Merge branch 'dev' of https://github.com/ita-social-projects/GreenCityUBS into change_and_delete#3047
a95f27d4c added logic for deleting and changing manual payment
6bbdb4e97 formatter
0e6c7015b resolving merge conflict
514c7981f bug fix
f1ef784f0 Merge pull request #211 from ita-social-projects/#3055_check_address_exist
47dbe5f12 Merge branch 'dev' into #3055_check_address_exist
641280ccc Add exception handler
988c6396f added name to column
c29d8b79a configured liquidbase and added 2 columns to order
a0527d49d Add and update test
ffadc7271 Add check for an existing address
607c4cde4 added tests
155f9010b bug fix
dc4240e87 formatter
31048671b controller for getting and updating reason of order cancellation
2b02a79dd Merge pull request #203 from ita-social-projects/SendNotifications1#2969
4e4af0e16 Fixed unit test
184f4701e Merge branch 'dev' into SendNotifications1#2969
712a06462 Merge branch 'SendNotifications1#2969' of https://github.com/ita-social-projects/GreenCityUBS into SendNotifications1#2969
96fed0c68 Added unit tests
d51d8c180 Added unit tests
98e871254 Merge pull request #206 from ita-social-projects/dev_3037_byPater
91f157bfb formatter
5a63821b0 First commit #3037
399b01e82 Added unit tests for NotificationController class
27139eef1 Added unit tests
c1cba8114 Merge pull request #205 from ita-social-projects/#3038
bb56c14f0 formatter
0f3bbc274 checkstyle
3ebee46f1 Add tests for UBSManagementService
a4d8d3f76 Merge pull request #204 from ita-social-projects/tests#3039
c84afaeec checkstyle
012d223cf tests
06e81b2a4 Formated code
e66cc8bab Fixed codestyle (for 9000-th time)
fca0cfdaa Added java docs and fixed codestyle
14613cfc3 Formated code
5aad1469c Merge branch 'SendNotifications1#2969' of https://github.com/ita-social-projects/GreenCityUBS into SendNotifications1#2969
3cb2b22e5 Formated code
6e471376e Merge branch 'dev' into SendNotifications1#2969
4a018e6a6 Fixed bugs, code cleanup, added notification limits and javadoc
979dcac15 Merge pull request #200 from ita-social-projects/Create_payment_upload_#3021
27428cdde Merge pull request #201 from ita-social-projects/fixAddress
455ccb798 Fix addAddress
1db380764 resolving conflicts
91bad72cb Merge branch 'dev' into Create_payment_upload_#3021
44e411547 Merge pull request #199 from ita-social-projects/delUser3015
65bf8ad88 added save new payment logic
b6cceb437 Merged Origin/dev to SendNotifications1#2969
5e9bfed28 Notification limits
63d14f457 Mark userProfile as DEACTIVATED
94f185e12 Merge pull request #189 from ita-social-projects/deleteEmployeeImage#3003
c2bbe7b7a Merge pull request #194 from ita-social-projects/orderEmployeesInfo
ef7b8c937 Merge branch 'dev' into orderEmployeesInfo
0ee66d7c5 Merge pull request #198 from ita-social-projects/refactorPayments
cdc0cc477 refactor payment
0b15561d8 Merge pull request #197 from ita-social-projects/refactorPayments
2edbb1c1f refactor payment
3da95d8cf Merge pull request #196 from ita-social-projects/payment_ref
973ef00bd fix payment
74aaf1e60 fix format
f39c19d5e created check client
5882bd7e9 Merge pull request #195 from ita-social-projects/payment_ref
8f7ec8990 Refactor orderPaymentStatus
c9234bdd4 Merge pull request #193 from ita-social-projects/payment_return_#2962
385649341 Update UBSManagementServiceImplTest.java
6a4e65b8c refactor
76edec690 Bring tests for all my methods
091778d83 Bring tests for all my methods
417a4a62d correct some bugs
c728114ca checkstyle
1deaf8d01 added 2 controllers for get employees by position
7e3803732 Merge branch 'dev' into payment_return_#2962
fd0ab511f Bring tests for all my methods
f58f5cf5e Bring tests for all my methods
d8abd648d Merge pull request #192 from ita-social-projects/payment_return_#2962
22e091030 Refactor
7a6305563 Refactor
8dc76e737 Refactor
27dcc1d78 Merge pull request #191 from ita-social-projects/payment_return_#2962
8f4d436ea Refactor
5bda4a888 Refactor
f2a7b3599 Merge pull request #188 from ita-social-projects/payment_return_#2962
2da8b0f6a deleted BlobNotFoundException and deleted employee image from azure
bc92e58e1 Refactor
94138425a Merge pull request #187 from ita-social-projects/#2894
f9e5f85c2 Fix cancelFormedOrder() and unit tests
e9ada1bf8 Fix makaOrderAgain()
b554a92d1 Merge pull request #186 from ita-social-projects/payment_return_#2962
000944fda Refactor
96fe89ca9 Refactor
ee4c300af Merge pull request #185 from ita-social-projects/changeException#3004
26c208d72 changed Exception from EmployeeValidationException to PhoneNumberParseException and added method to CustomExceptionHandler
a2531b601 api scheduler and triggers
79bc2ed0d Merge pull request #184 from ita-social-projects/updateProfileDate
f366ec0ff checkstyle2
1121456ca checkstyle
dd430888f write new tests and change method get (add if user is not exist)
b7fa9fcc2 fix checkstyle
5e0099582 Merge branch 'dev' into updateProfileDate
28800d494 delete excessive method
2a30d9b8a Find user by uuid, return user profile data and change it #2970
c00c1cc97 Merge pull request #183 from ita-social-projects/orderExportDetails
aa24b4674 checkstyle
d35bb3590 Merge branch 'dev' into orderExportDetails
fac30d060 Merge pull request #182 from ita-social-projects/#2967
5d024936c Added new methods for get and update export details by order id
60ea9c179 Added new controllers for export details
48fc916d5 Added new methods(ModelUtils)
09515c4f5 Added new tests
2a041cd19 Added new message
93e816286 Added new dtos (export details)
dff0501f8 Merge pull request #181 from ita-social-projects/payment_return_#2962
0da139cd2 Convert amount
118eafeed Add order paymant detail
4669322da Refactor
c99cc6113 Controllers for calculate and return overpayment as  money or bonuses to the client's bonuses account. Also create methods for calculate overpayment
a2c5b7a64 Merge pull request #180 from ita-social-projects/additional_bag_info
9c633eefc Created controller for getting additional information about bags info . v3.0
f658a1194 Merge branch 'dev' into additional_bag_info
c9c0a4ea6 Merge pull request #179 from ita-social-projects/2983_delete_violation_from_order_controller
6061fd6fd Created controller for getting additional information about bags info . v2.0
a11e9895f Created controller for getting additional information about bags info.
9e53b7c07 improved unit test, removed redundant if statement
d0ba438d6 fixed conflicts
e5431aa47 wrote unit tests
6b1be8f70 Merge pull request #178 from ita-social-projects/autoSetOnTheRoute
f2fa2900e checkstyle
0dba3782b Logic for auto updating order status to 'on the route'
afc33abed created controller that deletes violation from order
91bb11595 Merge pull request #177 from ita-social-projects/bag_info
4837e8b99 Created controller for getting all information about bags info v5.0
80621834d Merge branch 'dev' into bag_info
2e346b5af Merge pull request #175 from ita-social-projects/2961_view_user_violation_details_for_the_current_order
2fd0f12e4 Created controller for getting all information about bags info v4.0
bca1a692a Created controller for getting all information about bags info v3.0
fd2d6d987 Created controller for getting all information about bags info 2
f85a7d09f Merge branch 'dev' into bag_info
1737ff1a8 Created controller for getting all information about bags info
641c6d04e resolved conflicts
6083d5f77 code formating
ea8e39062 wrote unit tests
bdf78100c code refactoring
622146c2b create controller that displays in details information about user violation for the current order
53b993b7a create new enum type for violation levels
71389cb08 Merge pull request #176 from ita-social-projects/OrderDetails#2790
243703b77 refactor code
dd681dc52 checkstyle
71068f451 fixed code smell
370bba34f added new statuses logic
10ef2979b added new payment statuses
8153c5aa0 added new dtos
79253bf44 added new exception and handler
68a60a15b Added new column PaymentStatus to table Payment
6952baea0 add new columns to violations_description_mapping table
0e3252549 Merge pull request #174 from ita-social-projects/UBSClientServiceTests#2925
1dbeae6de Merge branch 'dev' into UBSClientServiceTests#2925
74edc977b Added tests for 1.findAllAddressesForCurrentOrder (String uuid) 2.saveAllAddressesForCurrentOrder (String uuid) 3.deleteCurrentAddressForOrder (Long addressId, String uuid)
23d405947 Merge pull request #173 from ita-social-projects/bonusController
118b71839 Checkstyle
4bb8699c8 Checkstyle
fdc81c5fa Merge branch 'dev' into bonusController
9bc737937 Create a new controller that will return information about the user's bonuses.
bb0a70db8 Merge pull request #171 from ita-social-projects/sonar_fix
8f9bf3c8b Swich sonar to SonarCloud ubs project
82213d310 Merge pull request #166 from ita-social-projects/steblyatko-patch-6
9d87df7bb Update main.yml
67f997b41 Merge pull request #165 from ita-social-projects/steblyatko-patch-5
4f721da30 Update main.yml
f277e55f3 Merge pull request #164 from ita-social-projects/duplicate_values_#2923
e4ca4ffe6 checkstyle
22004189b Now there is no duplicates for total_order_sum and id_order_from_shop when /ubs/management/orders
5696ca188 Now there is no duplicates for certificate points and certificate code when /ubs/management/orders
59e3474ff Merge pull request #163 from ita-social-projects/fixAddressSort
c5b952bac Now sumToPay cannot be null
5a5df6e90 Fix logic again, there was not right logic
64c383ae8 Merge pull request #162 from ita-social-projects/fixAddressSort
386613177 Fix logic
0b72a11ce Fix sort of addresses wrote some logic for certificates
ad2850ff5 Merge pull request #161 from ita-social-projects/bug_fix_order_client_dto
b232c5133 Sonar fix
1b4057713 Run formatter
40034ca16 Fix OrderClientDto test
d9c5ca1c8 Fix bug in OrderClientDto
ed8099ce1 Merge pull request #159 from ita-social-projects/#2910
e0e190dbd Merge pull request #160 from ita-social-projects/order_payment
5a54d50fe Created controller for getting all information about order payments.v5.0
55bf8f296 Created controller for getting all information about order payments.v4.0
30265e45f Created controller for getting all information about order payments.v3.0
cc56aa421 Created controller for getting all information about order payments.v2.0
53bef6987 Merge branch 'dev' into order_payment
9b4207e17 Created controller for getting all information about order payments.
b22031d52 Sonar Fix
fc15cf904 Add tests in ManagementEmployeeControllerTest
5fb6e246d Add tests
cdecb5282 Add deleteEmployeeImage()
1e6b7911f Add deleteImage(). Fix update() Employee. Rewrite tests
2f9268c19 Merge pull request #154 from ita-social-projects/2902_display_user_rule_violations_for_the_current_order_made_by_the_user
0894805cd Add delete() in AzureFileServiceImpl
2fc3cf85c Fix position and receciving station save bug
44f50bfde fixed ci/cd error
92f45f06e resolved cinflicts
273e2323f wrote tests
dfc6e5885 Merge pull request #158 from ita-social-projects/cert_status#2916
6825ea23e Certificate status become "USED" only after payment confirmation now.
47ddefd82 return information about user rule violations for the current order made by user
8888c6958 Merge pull request #147 from ita-social-projects/OrderDetail
6fb8461c6 Merge pull request #153 from ita-social-projects/fixserverbug
7b705ddd1 Check Style
7f86902be fix server error
04eae44d2 Update ModelUtils.java
1dd26d581 Update ModelUtils.java
3379915cb Merge branch 'dev' into OrderDetail
59c726062 Merge pull request #152 from ita-social-projects/#2893
149363f7d Add EmployeeIllegalOperationExcep
ded038a62 Add unit tests
e686fb40b added new tests and checkstyle
5acf945dc Change Position and Receiving St. names to name
0f036ae5d Add tests method createPosition
4745942a6 Add Crud controllers for Position and Receiving Station
87c685ef5 checkstyle
4185b41c8 checkstyle
484ae570c checkstyle
85896f987 update custom repo,fixed bugs and fixed problems
610cdf271 Fix default image. Add method into ManagementEmployeSer. Add constraint unique to Postion and Rec.Station
e4574cf46 Fix default image. Add method into ManagementEmployeSer. Add constraint unique to Postion and Rec.Station
a6d1f94b8 Merge branch 'dev' of https://github.com/ita-social-projects/GreenCityUBS into OrderDetail
2fe468aff Merge pull request #151 from ita-social-projects/fix_bugg
97faef20c Fix bug
9005f1ee9 checkstyle
a6e49769e Merge branch 'dev' into OrderDetail
5cd951398 Merge pull request #149 from ita-social-projects/#2894
85c1c4b33 Merge pull request #150 from ita-social-projects/#2859_employee_controller
52a0ed053 Remove imports
182a78d42 Update tests
14c797360 Update ModelUtils
f29bee5ac ModelUtils
fb8332964 Merge branch '#2859_employee_controller' of https://github.com/ita-social-projects/GreenCityUBS into #2859_employee_controller
9774c33c9 Update checkstyle
5f420db38 Update ModelUtils.java
f199040e1 Update PhoneNumberParseException.java
539fee66e Update UBSClientServiceImpl.java
acc0f7958 Update ReceivingStationRepository.java
588009bf8 Update PositionRepository.java
0c668cc81 Fix checkStyle
021569456 Merge branch 'dev' into #2859_employee_controller
02f616541 Merge pull request #145 from ita-social-projects/2791_controller_ubs_order_detail_customer_info
0a42f8496 fix ci/cd error retated to formatter
69de8721f fix merging conflicts
304e7572f Fix cancelFormadOrder() and makeOrderAgain()
484276b62 Update loop
9e9fd2a27 add tests and fix sonar code smells
446dfb29c Added new columns to Order entity.Added new methods to UBSManagementService for get order detail info,update order detail,and sum order detail.
65abfc3b4 Added new query for BagTranslationRepository, CertificateRepository and OrderRepository.
28747fac1 Added three controllers for order details(get controller,update controller,count sum controller)
0ff2936f9 Added query method, that returns Bags that have bags by order id
46ad0012d Added new mappers
f005f2b2c Added new custom repository for updating order details in order_bag_mapping table
8eba3e85d Added new Dto's
8bad40004 Added two new columns to order_bag_mapping: "exported_quantity", "confirmed_quantity"
c96487513 Add PhoneNumberParsingException
d0aeb9313 Merge pull request #143 from ita-social-projects/taskM
56a480863 Update SecurityConfig.java
aa27e554c Merge pull request #146 from ita-social-projects/filters_for_order_table
339874bf2 Fixed Pageable logic in /orders
3b65db592 Merge pull request #144 from ita-social-projects/filters_for_order_table
ce90eaa51 Create logic for filtering data on /orders v.5.0 Added Pagination to /orders controller
16116e98d Create logic for filtering data on /orders v.4.0 Added Pagination to /orders controller
ab9cc1c9e Create logic for filtering data on /orders v.3.0 Added Pagination to /orders controller
5b1692f43 Add unit tests
4abc72dba Add PhoneNumberFormatterService
3931c776c Fix save Employee method
1968da979 Fix AddEmployeeMapper
04e5d6743 fixed sonar bugs
9e2eb2e57 creates two controller, first controller returns info about user, ubs_user and user violation, second contorller updates ubs_user info in order
66c8886fc Create and edit entities, create FileUploadService and EmployeeService, change database
f6d6123e4 Create logic for filtering data on /getAllValuesFromOrderTable v.2.0
9a5b2b1ce Create logic for filtering data on /getAllValuesFromOrderTable v.2.0
1fc9588c1 Merge branch 'dev' of https://github.com/ita-social-projects/GreenCityUBS into filters_for_order_table
9921796f6 Create logic for filtering data on /getAllValuesFromOrderTable
169904801 Created controller which save or update user`s date UserProfileController.java Update UserDto and created UserProfileDto Added new Method in UBSClientServiceImpl.java
6a9a39083 Merge pull request #139 from ita-social-projects/#2842_ubs_client2
bb80a3ed2 2842_ubs_client done
72363706c Merge pull request #137 from ita-social-projects/steblyatko-patch-2
08bd94c1e Update main.yml
e79dde38c Merge branch 'dev' of https://github.com/ita-social-projects/GreenCityUBS into filters_for_order_table
ddb15159a Merge pull request #135 from ita-social-projects/fondy_new
61793cb61 Security fixed
da06e9b8c Merge branch 'dev' of https://github.com/ita-social-projects/GreenCityUBS into filters_for_order_table
4c92de038 Merge pull request #134 from ita-social-projects/AddressByOrderId
5c7a3056e Created new dto
84291b7f2 Create new test for update-address controller
908d13e42 Move the getAddressByOrder controller to the Management Order and create a new controller to update order information
adc9ced7e Merge pull request #133 from ita-social-projects/new_fixed_logic_in_table
1de547570 Merge branch 'dev' of https://github.com/ita-social-projects/GreenCityUBS into new_fixed_logic_in_table
743e820e1 Delete controllers and logic for getting all elements from OrderTable. v3,0 formated
3ad7632b5 Merge pull request #131 from ita-social-projects/new_fixed_logic_in_table
c35d850ea Delete controllers and logic for getting all elements from OrderTable. v2,0
ba7f6ac84 Delete controllers and logic for getting all elements from OrderTable.
fe2873872 Merge branch 'dev' of https://github.com/ita-social-projects/GreenCityUBS into new_fixed_logic_in_table
908e1f46c Merge pull request #130 from ita-social-projects/AddressByOrderId
3fe8d942b Merge pull request #132 from ita-social-projects/fondy_new
a867fede2 Security fixed
ab6df2dc2 Fixed order table controller
bb6d842d8 Merge remote-tracking branch 'origin/AddressByOrderId' into AddressByOrderId
591cf7de3 CheckStyle
27c7c3399 Merge branch 'dev' into AddressByOrderId
46a329343 In address repository i created new query for get Address by order id.I created new error massage.
10bd64932 Created Dto and model mapper.
c4d71a6f1 Created OrderController for getAddress by order id.Create test for OrderController.Created serviceImplementation that have new logic.
b79aa58c0 Merge pull request #129 from ita-social-projects/fondy_new
79f8ee231 Fee fixed
9518948c1 Merge pull request #128 from ita-social-projects/fondy_new
63f77c84b @Request body
a6a425011 Merge pull request #127 from ita-social-projects/fondy_new
1d899e031 changed verification method
a33bbe444 changed verification method
f6cda318d tests
544404764 Merge pull request #125 from ita-social-projects/fondy_new
5364103c5 Merge pull request #126 from ita-social-projects/new_fixed_logic_in_table
1c002f303 Controller for getting all values from table with sorting possibility.
8ce882576 tests
cc55ad00b checkstyle(((
db7036a29 checkstyle(((
7f584193a tests
7fc2fcfeb Merge branch 'dev' into fondy_new
4dca98dee env.variables
d06467de7 fondy:added merchantId in Dto
a4dee1a07 fondy:added merchantId in Dto
aa28f84d4 Merge pull request #123 from ita-social-projects/sorting_for_get_all_values_from_table
30d9b716b Fixed bug with dates in  global db , changed casting v4.0
c0d3a6e31 Merge pull request #122 from ita-social-projects/sorting_for_get_all_values_from_table
609287601 Fixed bug with dates in  global db , changed casting v3.0
a7ae716d1 Merge pull request #121 from ita-social-projects/sorting_for_get_all_values_from_table
3b370f982 Fixed bug with dates in  global db , changed casting v2.0
4ba36d368 Merge pull request #120 from ita-social-projects/sorting_for_get_all_values_from_table
d24e2425c Fixed bug with dates in  global db , changed casting
2558e6821 Merge pull request #113 from ita-social-projects/sorting_for_get_all_values_from_table
14a56d615 Created controller for sorting logic in order-table v1.0
d120eacde Created controller for sorting logic in order-table
3035f9414 Merge pull request #116 from ita-social-projects/V-la-d-patch-4
08faa1563 Update main.yml
b20c275bc Merge pull request #115 from ita-social-projects/V-la-d-patch-3
9878c9a08 Update ViberController.java
bbcfb40f0 Merge pull request #114 from ita-social-projects/V-la-d-patch-2
9de36945f Update main.yml
6d104059f Test Commit
651dce5f7 Merge pull request #108 from ita-social-projects/orderAddress2
938387bb5 Check style :)
374bc76fa Change method add new status change three methods deleteCurrentAddressForOrder,saveCurrentAddressForOrder, findAllAddressesForCurrentOrder, saveFullOrderToDB
73540e932 Add new log where im add new status column to address in database. Add column status to Address entity.
23c213b38 Merge pull request #107 from ita-social-projects/tests_for_viber_controller
6e3617e0c Merge pull request #106 from ita-social-projects/violationEmail2
6e97de1ff New test class for viber controller
4b6d305e8 Checkstyle
7f31358bf Merge pull request #105 from ita-social-projects/violationEmail2
bb371f877 Change method violation
9c567d783 new get parameters
e9e56edb8 Add language paramenter.
64b5c7367 CheckStyle
2dda444b1 Merge pull request #103 from ita-social-projects/violationEmail
64a8c3554 Change method UBSClientServiceImpl
b8e9421ff Add new String constant.
2e5752dd6 Wrote new method for sending dto to Green City User by using restTemplate.exchange.
5b298f636 AddViolation now use sendEmail method.
3988dba97 Merge pull request #102 from ita-social-projects/properties
a0ebfa401 properties
17c4995c3 Merge pull request #101 from ita-social-projects/revert-99-smallFix
e5eb813a4 Merge remote-tracking branch 'origin/revert-99-smallFix' into revert-99-smallFix
1bbd44e48 Revert "Change cascadeType and edit deleteCurrentAddressForOrder."
deea7bc6e Change checkStyle and tests
487bc282f Merge pull request #99 from ita-social-projects/smallFix
f7c8c33b8 Change cascadeType and edit deleteCurrentAddressForOrder.
0e0d51de0 Merge pull request #98 from ita-social-projects/smallFix
107154004 Delete comment from processOrder Json and add it to personaldata Json
c91084549 Merge pull request #97 from ita-social-projects/smallFix
48342d800 Delete Annotation
a258e21fb fondy:added merchantId in Dto
6a4d9031e Merge pull request #96 from ita-social-projects/orderAddress
dc81bc69a CheckStyle
29a7ee5c8 Change name of get method
62b17f1eb change name of getting,setting parameters
d43eae7b7 Change query after changed relation between order and Address
6761612e3 Change relation between two entity
013aa269b Merge pull request #93 from ita-social-projects/orderAddress
56cde48ce Merge branch 'dev' into orderAddress
63e7e3a81 Remove default language that now ui team can it use
2d6a968c2 Merge pull request #95 from ita-social-projects/get_all_values_by_table
c570437e9 Add recipient values for table
09b750d50 Merge pull request #94 from ita-social-projects/get_all_values_by_table
9fa260e58 Fixed bugs with sql v 3.0
d92cf03dc CheckStyle
1d2ac108f Addd comment to OrderController,UBSClientService.Change PersonalDataDtoMapper,UBSuserMapper.Add exceptions handler.
833c00220 Add default value for column actual into Address. Change class annotation.
7cfea12e0 Wrote new ModelUtils methods.
b3cd99851 Change and add new tests for Mappers, OrderController and UBSClientServiceImpl.
0b0394b71 Add new NotFoundOrderAddressException.
dc0690a25 Wrote method getOrderAddressDtoRequest, addressDto
30f1a5822 Add relation to Address.
eb83fa3d4 Wrote few methods for save,delete,find all addresses of current user
4cd95e010 Wrote few new methods at OrderController with url and test it
7d2ee5bb3 Wrote few dto for get Address data and return list of address of current user
7bfdb73e9 Add new changelog for add columns at Address table.
5a27f0578 Wrote Address entity,AddressDto and AddressRepository.
68b671513 Merge pull request #92 from ita-social-projects/get_all_values_by_table
69dea88b2 Fixed some bugs v 2.0
3cccee5bc Resolve conflicts
0c2e7e371 Crate GetAllValuesFromTable
5b3d6abd5 Merge pull request #90 from ita-social-projects/update_readmi
d8783fd5d update_readmi
535779565 Merge pull request #89 from ita-social-projects/update_telegram_table
a8f79d6b7 update_telegram_table
451ebc0a8 Merge pull request #86 from ita-social-projects/V-la-d-patch-1
58d7125e2 Update ViberController.java
4e0942efb Merge pull request #85 from ita-social-projects/V-la-d-patch-123
e9feaf3e2 Update ViberController.java
0965a72aa Merge pull request #84 from ita-social-projects/azure-pipelinesnew
d7f929531 Update az-cd-pipeline.yml for Azure Pipelines
e99fca52f Merge pull request #79 from ita-social-projects/viber_bot
bd6ef685e refactor
3bd1bbe5e refactor
6c5fe0c21 resolve conflict
d4ba5bc62 viber_bot
7a383c715 Merge pull request #78 from ita-social-projects/add_viber_bot_table
c61d706bd add_viber_bot_table
75101aa13 Merge pull request #76 from ita-social-projects/add_violations_to_user
8871dde0b Crating controller which add some violations to User through Order
84bbbf9fe Merge pull request #75 from ita-social-projects/ren
95642d30d Rename for UI
b6911c56f Merge pull request #74 from ita-social-projects/localization
97e54e5cd Resolve Error on sometime
525fc3f38 CheckStyle after merge
7a80a6a53 Merge branch 'dev' into localization
8034c6853 Add new annotation @ValidLanguage and Validor for this anotation. Change OrderController method with url '/orderDetails', now it can get language.Wrote few DTO and ValidatorConstants. Change some test that everything will be okey.
fdeb0e4e7 Add new Repository for Language anf BagTranslation ,add new Service interface and their implementation
39a84bb07 Changelog,new Entities,change insert.sql.
f5e733e45 Merge pull request #69 from ita-social-projects/master_badges
1cfd93ecc Merge pull request #73 from ita-social-projects/find_user_violations
886541aae Getting Users violations v3.0
fdafe441a Getting Users violations v2.0
c7b6bb241 Getting Users violations
792ab6015 Finding user violations
29404e9a2 Merge pull request #71 from ita-social-projects/adding_point_to_user
12d363a7d Merge pull request #70 from ita-social-projects/delete_interceptor
9d81b97f8 Merge pull request #72 from ita-social-projects/delete_last_act_time
3f2bde4f3 delete lastActivityTime
4a337593e Created controller for adding points for User by email
29d26abec rename dto field
ec174f4c9 Merge branch 'dev' of https://github.com/ita-social-projects/GreenCityUBS into adding_point_to_user
914fb2a24 Add point to user
3c475a035 Merge pull request #68 from ita-social-projects/badge
42d3f4272 Update README.md badges in master#2585
3c9207fb1 Update README.md badges #2585
8ab80e58e Merge pull request #67 from ita-social-projects/violatins_description
190219273 createRecordInUbs method fixed builder
f7deb60f4 certificate validation method changed
41e0cc7cf fixed service according to new entity
e2af66cbf Merge pull request #66 from ita-social-projects/delete_interceptor
8de829059 delete interceptor
417248f63 Merge pull request #65 from ita-social-projects/new_branch123
71bf87a53 Add photos, Change Readme
276b87a54 Merge pull request #64 from ita-social-projects/insert_data
037d501e7 Wrote insert.sql file. Chanfe README.md add link on READ_ME_INSTAL_LOCAL.md Add new photo to READ_ME_INSTAL_LOCAL.md for showing how to connect telegram bot.
9b835059f Merge pull request #63 from ita-social-projects/writing_tests_for_2_controllers
7517ed5b2 Merge pull request #56 from ita-social-projects/logic_for_adding_certificates
fa796d604 Writing test for getallCertificate and addCertificate controllers, also writing test for service methods to this controllers. Modify Model Utils in service package. Created ManagementOrderControllerTest classTest.
af5b88a76 Merge pull request #62 from ita-social-projects/change-of_points
9af68e27f checkstyle
5a57d22fb checkstyle
e2df59879 fixed cascade type in Order and User
9e420f3fa fixed cascade type in Order and User
9105eea4b Merge branch 'dev' into change-of-points
446c831ec Merge pull request #59 from ita-social-projects/remove_db_constraint
436eec561 Added ChangeOfPoints,changed User,Order Entity Changed UBSService
316494053 Added ChangeOfPoints,changed User,Order Entity Changed UBSService
8244c5e87 drop db constraint
a719165f3 Merge pull request #55 from ita-social-projects/fix_dependency
43dbbbfc6 Create controller AddCertificate. 1.Create CertificateDtoForAdding 2.Create CertificateDtoForAddingMapper 3.Create addCertificate method in UBSManagementService 4.Create implementation to method in UBSManagementServiceImpl
e065ce414 Merge branch 'dev' of https://github.com/ita-social-projects/GreenCityUBS into fix_dependency
3f5fd05a4 fix2.0
847035252 Merge pull request #54 from ita-social-projects/fix_dependency
c5b9694b1 dependency fix
a4833ba3c Merge pull request #53 from ita-social-projects/add_logic_for_returning_certificates_all
5d9bcd4cf Create GET controller for returning all certificates with possibility of ordering v.4.0
c230a5952 Merge remote-tracking branch 'origin/add_logic_for_returning_certificates_all' into add_logic_for_returning_certificates_all
5d2014f3c Create GET controller for returning all certificates with possibility of ordering v.3.0
573d8944f Merge branch 'dev' into add_logic_for_returning_certificates_all
5d15f61a2 Create GET controller for returning all certificates with possibility of ordering v.2.0
258721188 Create GET controller for returning all certificates with possibility of ordering
b91c7757f Merge pull request #52 from ita-social-projects/#2450_task
8e1a1c75e added scheduler for updating certificate status
503215683 Merge pull request #51 from ita-social-projects/delete_test
ea49328a8 delete test
89d0114e7 Merge pull request #50 from ita-social-projects/telegram_bot
977bd191b resolve conflict
e77fc6299 telegram_bot
9674807d6 Merge pull request #48 from ita-social-projects/add_table_to_database
5e222bdd2 Merge branch 'dev' into add_table_to_database
42291532a add_table_to_database
21d1924ff Merge pull request #47 from ita-social-projects/add_payment_to_ubs
a7f7a091d formatter
7393e7516 previous changes
2b173c884 add fondy paying system + refactoring
516c0b02d Merge pull request #46 from ita-social-projects/fix_last_activity_date
83041d93f Fixed Last date activity value-Date , also test / test v1.0
4f8b12a16 Fixed Last date activity value-Date , also test
dddb5af88 Merge pull request #45 from ita-social-projects/#2438_task
6bba95911 wrote tests for getClusteredCoords method
0d81ac641 Merge pull request #41 from ita-social-projects/readme_for_master
a26b33458 Merge pull request #42 from ita-social-projects/readme_update
f19250bba Update READMEINTRO.md
c4b2a57a7 Update Readme.md + user_enviroment_variables.png
dc1f4cc8b Update Readme.md
c1faf7dea Update Readme.md
d71f9ecfc Merge pull request #38 from ita-social-projects/fix_order_bugs
3a2b5a5f9 Merge pull request #36 from ita-social-projects/#2408-UBS-mappers-tests
0ab866ac2 bug fix -fix pattern for first and last names -fix street field to be able to contain numbers
e62b1c9ea Merge pull request #37 from ita-social-projects/add_new_ubs_features_plus_refactoring
86e5abe63 Merge branch 'dev' into add_new_ubs_features_plus_refactoring
e2cf7c3bc Merge pull request #35 from ita-social-projects/#2371_fix_and_adding_db_constraint
cdb2b837a formatter
1ca6bfa5d set of changes -add new statuses to certificate and order -add new column to certificate -services refactoring
1bbea66d9 Update UBSClientServiceImpl.java
da58c05ae added tests for CoordinatorDtoMapper CoordinatorMapper OrderMapperDto
bf70c6fce fixes not null constraint to uuid minimal order sum constraint
d88beebba Merge pull request #34 from ita-social-projects/tests_fix
aaf688a4a fix tests
6597ec0d0 Merge pull request #33 from ita-social-projects/fix_ubs_table_new_record_creation
fb9228345 fix
d07d0e99f Merge pull request #32 from ita-social-projects/Skajl-dev-patch-3
8b6c69f55 Update az-cd-pipeline.yml
35c1a12a8 Merge pull request #31 from ita-social-projects/V-la-d-patch-2
446083356 Update az-cd-pipeline.yml
dea911575 Merge pull request #30 from ita-social-projects/Skajl-dev-patch-2
33d0f50f0 Update az-cd-pipeline.yml
968689173 Merge pull request #29 from ita-social-projects/fix_ubs_patterns
bca883389 fix regex
a69facd58 Merge pull request #28 from ita-social-projects/V-la-d-patch-1
3c881c8b3 Merge pull request #26 from ita-social-projects/make_ubs_work_with_own_database
0ee72a552 Update az-cd-pipeline.yml
830268ed3 Merge pull request #27 from ita-social-projects/V-la-d-patch-4
483e24156 fix formatter
10d855ccd Update az-cd-pipeline.yml
870f9f7d6 Merge pull request #22 from ita-social-projects/V-la-d-patch-3
b04f09396 Update az-cd-pipeline.yml
139b11c7b Merge branch 'dev' of https://github.com/ita-social-projects/GreenCityUBS into make_ubs_work_with_own_database
941cc8c14 set of changes - db separation - ubs methods fix
7402fa6eb Merge pull request #19 from ita-social-projects/add_date_to_sertificate
401bff6b3 add date to certificate
9da6cf636 Merge pull request #18 from ita-social-projects/refactoring
6370e08c7 formatter
088299988 refactoring
fd4c59344 Merge pull request #17 from ita-social-projects/service_improve
40885e9cf Merge pull request #16 from ita-social-projects/update_ubs_methods
9138886da formatter
ce2805771 fix
c455b07b8 update_ubs_methods
ab365a591 merge changes
9b25d27bc marian changes
621079d27 fixes
aa90d1305 Merge pull request #15 from ita-social-projects/сertificate_validation
ddf7266f8 certification validation
662894e88 fix
2b5fa6d1a list of changes - ability to add many certificates and additional orders -fix tests -add new entities fields
7f7f1b0c5 Merge pull request #14 from ita-social-projects/fix_bug
3b3432315 fix checkstyle
730763d5f fix bug + controllers rename
278fa4ff8 Merge pull request #13 from ita-social-projects/is_plus_newEntities
3c862312d additional columns
1a6f229bb small fix formatter java doc
9f67aa04d set of changes -add new fields to reflect db -add mapper for coordinates -interface segregation
752f702e9 Merge pull request #12 from ita-social-projects/add_litres_to_clusters
b5a879ea9 small fix
37570914d -add new management controller -add method finding all undelivered orders coordinates -add method finding clusters of coordinates including specified
e47374150 formatter
f0479b523 add possible litre limit
2af2d57f3 -add amount of orders litres to every cluster
c700bf738 Merge pull request #11 from ita-social-projects/add_coordinates
0c25a4d2f fix
b78a6ed13 formatter
6858a3d33 - add coordinates to address + coordintes grouping method - add new columns to address and orders tables - add advice controller - fix swagger documentation - fix bugs
19c1038a2 Merge pull request #10 from ita-social-projects/formatter
547361071 formatter
a679ca4b0 Merge pull request #8 from ita-social-projects/add_tests
e4fa0162f Merge pull request #9 from luchk/patch-1
1f61676e2 edit main.yml
b5507671c add tests
246e575bd Merge pull request #7 from ita-social-projects/update_readmee
814130059 add README.md
884d98224 Merge pull request #5 from ita-social-projects/fix_build_problems
21c7beb82 -fix build problem
bc2673023 Merge pull request #4 from ita-social-projects/divide_into_modules
11b038955 -divide program into 4 modules -add all needed documentation -add deploy config -add plugins
de0c28a06 Merge pull request #3 from ita-social-projects/delete_unused_fields
e72b03463 check2
c12fc6663 check
0bc43cc60 delete all unnecessary user fields
1b2440603 delete all unnecessary user fields
47e6011b3 delete all unnecessary user fields