d2abdef29 Upgrade Java source and target version to 21
5ec79934b Switch version from 7.6.5-SNAPSHOT to 7.6.5
c7607150f Refactor and rename methods for PAG consistency
37ebfebbe Refactor cycle resolution and add setter methods in GFci
f745d697d Merge pull request #1801 from cmu-phil/joe-work-2024-8-12
0b690a1ab Add cyclicity check parameter to repairFaultyPag method
4931a4f71 Enhance FCI configurations with new settings
3106aa98f Enhance FCI algorithms with discriminating path rules.
2108ac451 Refactor FCI to handle unshielded triples and repair faulty PAGs
3d9aee9f2 Remove redundant ablation parameter and add logging
452a426b0 Remove redundant and unused parameters
66f42eaeb Merge pull request #1800 from cmu-phil/joe_work_2024_6-13
56c421fcb Add Javadoc to various classes and methods
a58adf790 Fix newline formatting in FciOrient.java
5d41124db Conditionally log messages based on verbosity
a4426e0c0 Refactor visibility check logic in Paths.java
f3dc39334 Make fciOrientbk method public
ad7c9857d Refine edge orientation rules and simplify documentation
c2f64164f Refactor DiscriminatingPath and related classes/methods.
da43b5645 Rename isValidForGraph to existsInGraph in DiscriminatingPath
2a8d4a6c8 Remove SvarFciOrient.java
fcaa419c8 Remove unused import in FciOrient.java
e63ccedfa Merge remote-tracking branch 'origin/joe_work_2024_6-13' into joe_work_2024_6-13
8a88dd848 Simplify discriminating path orientation methods
14acff3cf Refactor: Move R5R9Dijkstra to search.utils package
df390776a Refactor discriminating path methods
f1ce1f26b Refactor GraphUtils handling and adjust FciOrient signature
7d0d95349 Add handling for partially oriented edges and refactor rules
fe39ee0ea Remove extraneous newline in FciOrient.java
81c3b56c4 Rename R4Strategy to R0R4Strategy and update related references.
d85667e3c Remove FciOrientDijkstra and Rename FciOrient Strategies
09738cb97 Rename Dijkstra utility to FciOrientDijkstra for specialization
37cfde240 Rename Dijkstra utility to FciOrientDijkstra for specialization
1db7265c5 Rename Dijkstra utility to FciOrientDijkstra for specialization
ddc8ec81a Improve Dijkstra implementations for FciOrient and Graph handling
214bf3013 Add "Make All Edges Nondirected" functionality
339f21015 Add "Make All Edges Nondirected" functionality
c6ba5b419 Refactor graph pathfinding to use Dijkstra's algorithm
94fb22656 Remove redundant methods and cleanup SepsetFinder.
85ee59d19 Add detailed logging to LvLite.java
76164f587 Add detailed logging to LvLite.java
ed505a75d Refactor logging for better readability and context
2999a5f1e Refactor FciOrient and LvLite for consistency
c7224034e Implement support for allowed colliders in FCI algorithms
8431ec169 Implement Pair return type for path orientation methods
3b07ef4ff Refactor timeout handling and synchronize methods
d529d6ff0 Introduce timeout for extra edge removals and FciOrient steps
cb355a21d Refactor SepsetFinder and update discriminatingPathOrient
eeb8ab737 Refactor doDiscriminatingPathOrientation method signature
0ad816d96 Update LV-Lite parallel execution and add timeout handling
e8121c637 space
201283c24 Update various classes with JavaDoc comments and final modifiers
a50e80fba Add extra edge removal strategy to LvLite
b7a94a016 Remove redundant blank line in LvLite.java
4a2c61386 Refactor: Add blank line for code readability
80e51b6b5 Refactor edge removal method and improve exception clarity
9a348dd42 Remove debug println statements for cleaner code
04bf07218 Remove debug println statements for cleaner code
70df1f792 Update FciOrient initialization in LvLite class
d6babb744 Refactor LvLite to use 'dag' instead of 'cpdag'
163623087 Update path blocking methods and clean up comments
7030c83cf Merge remote-tracking branch 'origin/joe_work_2024_6-13' into joe_work_2024_6-13
88fc41dbe Refactor sepset path blocking logic and update tests.
e9eb4496f Disable cycle removal and add allPathsOutOf3 method
3a95cb236 Refactor handling of almost cycles and sepsets
b6076c80f Refactor cycle-removal logic and cleanup LvLite class
9744c3f1d Refactor LvLite orientation methods and improve cycle removal
f11f62e6f Refactor AlmostCycleRemover for clarity and flexibility
50c8be225 Refactor and streamline LvLite and related classes
5772cfb92 Add FCI orientation rules with data examination strategies
4bab1cc96 Enhance D-SEP computation for MAGs and IPGs
65e18cf3d Remove discriminating path rules from DAG to PAG conversions
965115c89 Refactor separation set logic and improve sepset handling
be68512da Update search methods and remove tucking steps
f2124a745 Add new functions for graph conversion and update existing ones
c0dbeb622 Refactor SepsetFinder methods and update tests
42ee123d4 Merge branch 'development' of https://github.com/cmu-phil/tetrad into joe_work_2024_6-13
97add9b61 Update test parameters in SepsetMethods test cases
2ecf22a6b Update method name in output message
785ced2a1 Refactor SepsetFinder and TestSepsetMethods
9421e998c Refactor sepset finder and remove unnecessary code
6c69b71ac Refactor LvLite and SepsetFinder and enhance code consistency
af577151e Refactor SepsetFinder and related methods
d9d13b62b Refactor sepset path blocking method in SepsetFinder
eaf22154c Add depth parameter to sepset finding functions
d4099ddf5 Update sepset finding methods in docs
e18ff3f08 Update sepset finding methods in docs
b8658c91b Add selection of sepset finder method in SpFci and BFci
328302524 Refactor SepsetsGreedy to improve performance
a9a359e52 Refactor Sepset classes for efficiency
3d9dbd6c6 Add new SepsetFinder class and refactor related classes
ce9618eef Remove redundant 'repairFaultyPag' method
f3f2ab85d Add option to skip final orientation step in algorithms
1c5a45ef8 Merge pull request #1799 from cmu-phil/vbc-2024-07-16
f64f28a88 Refactor graph manipulation in search algorithms
829ed7672 nit
c3547d7ed Include specify file for test check nodewise markov
6fb149cc9 Refactor code across multiple files and methods
80e6bf257 This version of LV-Lite is regularly passing a Markov check.
27b270233 Change methods to return Set instead of List
c2d2ec97d Change methods to return Set instead of List
2505d300a Update search parameters in TestFci.java
5f2418a6d Merge branch 'development' of https://github.com/cmu-phil/tetrad into joe_work_2024_6-13
f046f67d7 Merge pull request #1798 from cmu-phil/dg-fix
2a2a30595 Add getSepset2 method in LvLite class and fix typo in TestLvFromOracle class
015a526e4 Refactor FciOrient method and update classes
cd7693987 Refactor FciOrient configuration and adjust usages
edcf2059f fixing dg
ed7879c72 Refactor `FciOrient` for better path tracking mechanism
358bc2c49 Remove unused checkTucked2 method and comments
5b1b0c913 Refined LvLite algorithm and updated graph statistics
7ce3e7499 Refactor code for better handling of directed acyclic graphs.
cc9557efa Refactor LvLite and update FciOrient; add tucking and testing flags
ae26de29c Merge branch 'development' of https://github.com/cmu-phil/tetrad into joe_work_2024_6-13
74e75c12c Merge pull request #1791 from cmu-phil/markov_check_precompute_covariances
72bab3fc0 Merge branch 'development' into markov_check_precompute_covariances
da62a48a6 Merge pull request #1793 from cmu-phil/vbc-2024-07-09-2
fdc7b5ee0 Merge pull request #1794 from cmu-phil/vbc-07-09-3
decf2f684 Merge pull request #1792 from cmu-phil/vbc-2024-07-09
a1e5a34cf renaming
72daca0a1 Update LocalGraph Confusion matrix calculation
ea3cf6a85 move all nodewise markov tests from CheckMarkov Unit tests and allow direct call for nodewise markov
12ad9a0c2 Refine LvLite algorithm and documentation
6ae7c3837 Refine wording and adjust parameters in LvLite class
5a08b9ce5 Refactor LvLite and update search methods
6f394346b Refactor LvLite and BFci classes for clarity and performance
dbf2aa082 Update StatsListEditor class documentation
87edd23bb Refactor comparison process to use WatchedProcess
406803873 Rename and modify NumInducedAdjacenciesInPag to NumEdgeInEstInTrue
115ab2619 Update LvLite algorithm and related files
4f5d4ec26 Rename LV_LITE_MAX_PATH_LENGTH to MAX_BLOCKING_PATH_LENGTH
2ca5a4e8d Refactor LvLite and FciOrient classes for enhanced code optimization
dadc6d03a Refactor LvLite.java and add maxBlockingPathLength field
f7b18fbd3 Refactor LvLite search, improve path handling, and enhance PAG adjustments
6b5fe019e Update SemBicScore parameter in TestCheckMarkov tests
c7709c48f Refactor collider addition logic in LvLite.java
8765bef2e Add statistics for adjacencies in PAG graphs
a50e59e77 Refactor LvLite algorithm and update GraphUtils
d573d80fa Update graph algorithm and remove unnecessary debug log
edb61e71d Update LvLite and related classes
7ea7ac919 Remove LvLiteDsepFriendly class from the project
85cb446b5 Update parameter descriptions and add new option in conditioning set type
a97a6d978 Add option to remove extraneous variables in MarkovCheckEditor
eb8a7e290 Add 'knowledge' parameter to graph processing methods
43d0df9b4 Refactor LvLite class and update edge type documentation
088e1c0ec Refactor LvLite and related classes for clarity and performance; ensured edge specialization in the interface is done only for directed edges.
bf0324275 Update parameters and add documentation to existing methods
9247286ed Refactor LvLite.java and SessionEditorNode.java for better performance
b42cbc2ee Refactor edge removal methods in LvLite
79260ec4d Merge branch 'development' of https://github.com/cmu-phil/tetrad into joe_work_2024_6-13
46f9eba90 Update attribute names and improve parallel computations
04b314994 Update exception message in LvLite.java
5b2565220 Update `Grasp` and `TeyssierScorer` constructor arguments
17c84f470 Refactor LvLite.java for parallel execution
316e71392 Update calculation methods in GraphUtils and optimize various search methods
a19f463c3 Refactor LvLite and LvLiteDsepFriendly classes
dd60be53f Update repairFaultyPag method and enhance logging in GraphUtils
c915e862c Refactor code and fix orientation issue
cfbf6dfc8 Merge pull request #1790 from cmu-phil/vbc-2024-06-26
7ea22495b Fix node replacement issue for estimated graph both for local graph and for global graph
37149bdbd Merge branch 'development' of https://github.com/cmu-phil/tetrad into joe_work_2024_6-13
22291bf2b Fix indentation in MarkovCheck.java
3d2ed0edc Update node replacement in TestCheckMarkov
1a3a3443c Merge pull request #1789 from cmu-phil/vbc-2024-06-24-pd
0f2f6d8c3 padding for PR #1788 Markov Check, record lower recall nodes when plotting data
61784706e Update rules and methods to repair faulty PAGs in various graph-related classes
ad3edc448 Merge pull request #1788 from cmu-phil/vbc-2024-06-20
1e810120a Merge branch 'development' into vbc-2024-06-20
d1c4da5b8 Merge pull request #1787 from cmu-phil/vbc-2024-06-25
cb538b9d6 java doc
dbe94dd5c Resolve NaN ADTest P value from empty independent facts cases
8981930fe Update LvLite classes and methods to use allowableThreshold
dd143aeef Update description in LV-Lite procedure documentation
5c0289314 Rename "equalityThreshold" to "bayesFactorThreshold"
d2174cd58 Update LvLite algorithm mechanics
65283c491 Rename orientCollidersAndRemoveEdges to orientAndRemove
a7670b6b8 Refactor graph comparison methods and adjust collider orientation
da9de0e00 Improve comments and refactor method parameters in tetrad-gui
e50e8c565 Add MagDgBicScore class and update depth in GraspFci
c898143fe Add additional argument in compareFromSimulations method
9fb25aa10 Enable cycle prevention in MeekRules and improve documentation
2cec781d6 Refactor markov check logic and add new statistic classes
be76663db Replace "meekPreventCycles" with "guaranteeCpdag" across multiple files
d553f2dd0 Add ability to prevent cycles in Meek orientation
5a8f076bf Move directed edge addition in MeekRules
aa44fb5b8 Refactor logging and collider checks in MeekRules and PcCommon
167f4c67e Refactor MeekRules class with better documentation
a4cb55ee9 Added meekPreventCycles flag with default setting
412bd9bb4 record lower recall nodes
d6e717d17 Implement prevention of graph cycles in Meek rules
86d0c55c4 Remove unused MyWatchedProcess call
59f3b9d37 Reduce histogram bins and optimize variable removal in Markov check
cfa15e3ce Refactor likelihood tests and update data handling in multiple files
2bb68cfc7 Remove unused MagSemBicScore and add new Scoring Implementations
491d667fe Merge pull request #1786 from cmu-phil/vbc-2024-06-18
9c92055c3 Markov Check Test on same graph for different confusion matrix (Adj, AH, LG) for Gaussain DAG on Markov Blanket
472d92f2a Redirect verbose output to System.out and ensure parameter serialization
a3f519c6e Make GUI components transient and refactor button creation
c3e08d267 Merge pull request #1785 from cmu-phil/vbc-2024-06-14
3e91080bf Update Maven plugin versions and add documentation comments
3eaad6543 Add depth setting methods and refactor statistics calculation
496c59fea Add graph viewing functionality to GridSearch GUI
54d2aa66e Typo fix
9bde4c6c8 Add new statistic calculation classes and update depth control in search algorithms
6aa03408b Merge pull request #1784 from cmu-phil/joe_work_2024_6_1
7585c80a8 Add serialization methods to various classes
9e1f267ce Add resultsPath field to GridSearchModel
7cda6c2ea Add RowsSettable interface to IndTest classes
92b0c22cc Improve error handling code and remove unused code blocks
98370d8f2 Rename LvDumb to BossPag in Algorithm and Search classes
3211c77bf Update LvLite class and improve description in TrueDagRecallArrows
55f2800ce Update thread interruption checks
ebd0168d3 Refactor LvLite.java: Add option to choose initial CPDAG algorithm, remove unused methods
bfbacb105 Update model observer list and adjust GUI size
b201f740a Improve regex filter and enable graph manipulation items
4c590a2bf Add node selection feature to MarkovCheckEditor and remove parameters from LvLiteDsepFriendly
dd9b1bebe Add equality threshold and optimize performance in LV-Lite
2b7b9d3cc Refactor type conversion and remove readResolve method
80206e9fe Refactor and optimize LvLite and related classes
9e751d499 Refactor collider orientation and remove unused parameters
99ac24c93 Refactor and optimize LvLite and LvLiteDsepFriendly classes
9a8bc7b3c Refactor LvLite and LvLiteDsepFriendly classes for better readability
f8b824e3e Refactor LvLite and LvLiteDsepFriendly classes
e66db4b01 Refactor method to set maximum discriminating path length
bff7e1974 Refactor method to set maximum discriminating path length
c372d0075 Implement option for internal algorithmic randomness
62344859a Implement option for internal algorithmic randomness
9d4986fee Update discriminating path rule in various classes
9ba945b94 Update LvDumb class documentation
74c064ad1 Update LvDumb class description
8f0034117 Refine GFci-R0 algorithm for better graph node orientation
5e920bbec Refactor triangle reasoning in LvLite and LvLiteDsepFriendly
b69cf822d Refactor LvLite search and update GraphEditor
41b97c3fe Correct typo and clean imports in graph package
ebaba1bd1 Merge pull request #1769 from cmu-phil/joe-work-2024-5-7
e7a4b289f Merge pull request #1781 from cmu-phil/vbc-05-28
6d2ccb679 Refactor enumeration classes and serialization methods
e9441e7f0 convert to shuffled P Vals into one whole flat list
9701fdb95 Refine statistical model and node type checks
09ff32fa6 Add transient keyword to variables and rename LvBossPag to LvDumb
22e1d536a Add more constructors to GridSearchModel
c1fe4815d Refactor type conversion and remove readResolve method
cac947380 Correct parameter name in setAlgorithmKnowledge method
1c79b86d6 Add serialization and deserialization methods to multiple classes
9ff47fe0d Implement serialization and deserialization error logging
bc1b398da Improve readability of GridSearchEditor code
0e4d77c3d Merge branch 'development' into joe-work-2024-5-7
58ee6795e Refactor logging and import statements in Rfci
a51d4e1fc Add detailed comments on methods and variables across multiple classes
c55370581 Improve readability of GridSearchEditor code
dfd368eed Refactored GridSearchEditor and removed unused logic
704bb58eb Add JTextFieldWithPrompt class and improve serializability
d5040da80 Update PrintStream declarations to be transient
4beb8bc5f Update Markov statistics calculation and improve GUI options
18c244edd Fixed shuffle function
0294d49f4 Refactor algorithm comparison code and fix typos
ed28ba2e7 Added discriminating path collider rule in LvLite and implemented LvDumb algorithm
80318b24e Add caching for comparison and verbose output texts
8fc7006e1 Update GridSearchModel and GridSearchEditor classes
c40465a00 Refactor GridSearchModel and GridSearchEditor classes
477bfa638 Refactor GridSearchModel and GridSearchEditor classes
816c40940 Refactor LvLite class and add NumberEdgesTrue, NumberEdgesEst statistics
16968bb77 Update log message in LvLite class
e9c72d8f6 Remove "firstPass" variable from LvLite file
7b12c6224 Add 'allowTucks' option to LV-Lite search algorithm
fdf13fd5f Refactor LvLite to improve unshielded collider handling
cf49db324 Refactor LvLite and remove print statement from LegalPag
8db5a98bf Refactor LvLite.java for optimized logging and simpler logic
e69b76c6b Refactor LvLite class to improve unshielded colliders processing
eacc9a403 Refactor LvLite, TeyssierScorer, and EdgeListGraph classes
56fba6609 Refactor TeyssierScorer variable naming and handling in LvLite
ff3bf4235 Refactor LvLite class and improve collider orientation logic
976ecd0a4 Refactor LvLite class and improve collider orientation logic
20d04add9 Refactor code in LvLite.java for improved readability
eb6a84dc2 Refactor LvLite.java for reduced complexity and clarified comments
e93a97d46 Refactor LvLite and TeyssierScorer classes for clarity and accuracy
4f5dca815 Merge pull request #1779 from cmu-phil/vbc-2024-05-24-3
8fbd0f95f Merge pull request #1780 from cmu-phil/vbc-2024-05-24-4
11e3123d7 Non Gaussian CPDAG for Local Markov Blanket test case, confusion stats using LocalGraphConfusion
61088c3d4 Non Gaussian DAG for Local Markov Blanket test case, confusion stats using LocalGraphConfusion
f09446478 Non Gaussian CPDAG for Local Markov Blanket test case, confusion stats by AdjP, AdjR, AHP, AHR
ef9ddef82 Non Gaussian DAG for Local Markov Blanket, confusion stats using adjP, adjR, AHP, AHR
b1234e18d Merge pull request #1777 from cmu-phil/vbc-2024-05-24
adbefad03 Merge pull request #1778 from cmu-phil/vbc-2024-05-24-2
774d29f65 Introduce test and plot data collection for Gaussian CPDAG case for local Markov Blanket using Local Graph Confusion statistics
c8361571e Generate plot data for Gaussian CPDAG test case using AdjP, AdjR, AHP, AHR confusion statistics
17869189e Refactor PathsAction to remove redundant initialization
089d1d2b8 Improve PathsAction.java string symbol and code format
0b3add275 Refactor PathsAction and related classes
ca0379b5c Merge pull request #1776 from cmu-phil/vbc-2024-05-23-2
58f01edf1 method documentation
4c5b5120a nit
baf1377f7 update test when using lgp and lgr
c7c662383 Introduce Plot data functions for Local Graph Precision and Recal
9bc125681 Merge pull request #1775 from cmu-phil/vbc-05-23
de7202a8f Introduce plot data collection for different confusion matrix stats from Anderson Darling Test result.
d00f51237 Refine path calculation and adjustment set algorithms
9942ed094 Refine path calculation and adjustment set algorithms
4d5143ee5 Refactor error handling and modify variables in graph components
9f5d8ec61 Refactor code base to improve UI responsiveness and update method names
779548776 Merge pull request #1774 from cmu-phil/vbc-05-21-2
6b40b61ee Merge pull request #1773 from cmu-phil/vbc-05-21
8df72c0c3 Rename 'Algcomparison' to 'GridSearch' and update linked functionalities
8756d47ea Rename 'Algcomparison' to 'GridSearch' and update linked functionalities
0085c8f45 Rename 'Algcomparison' to 'GridSearch' and update linked functionalities
d528e92a0 Rename 'Algcomparison' to 'GridSearch' and update linked functionalities
96af84f3c Refactor code and add new test
fd12edcdb Introduce shuffle trick to get more local P-values
aae647c46 nit: remove comment.
b11412265 Update getLocalIndependenceFacts to check on independence.
34cd2cc4b Refactor BfciSb implementation and add a GRaSP algorithm option
be95c1c26 Refine methods for identifying amenable and backdoor paths
685c09a5b Update data discretization and likelihood calculation in tests and scores
341eb78ec Add amenable and non-amenable path functionalities for PAGs
a877b23fa Refine file existence check in TestGraph.java
8de2c9d4d Refactor MarkovCheck to implement clear method
412c187b7 Improved updates for independence and dependence counts in MarkovCheckEditor
22827900c Add exception handling for graph adjustment method calls and remove redundant params in BfciSb.java
21a66b52d Fix typo in LayoutMenu and add Cycles method in PathsAction
a49fda12c Refactor code to improve exception handling and algorithm integration
954720099 Update Paths class to prevent adding duplicate paths
a522a34b0 Refactor path calculation methods to use parameters object
ae16a356a Merge pull request #1771 from cmu-phil/vbc-05-16-2
4d6fa9828 Refactor FaskOrig references to Fask
5343b2d73 Reposition statistical methods in Fask class
25a536998 Refactor Fask classes and update related javadoc
ba19f85f6 Refactor Fask class and update parameter list
3655ee137 Add original implementation of Fast Adjacency Skewness search algorithm
9f1adaa9e reAdd back test after rebase on dev branch
209b7b445 Introducing Local Graph Confusion and its corresponding Precision and Recal
613026d3e Refactor PathsAction and GraphUtils for better readability
eceedf556 Refactor PathsAction and GraphUtils for better readability
ea4507d8e Merge pull request #1770 from cmu-phil/vbc-05-16
12cf18e7d Include Non Gaussian cases for Local accuracy tests
d378d9e55 Refactor PathsAction.java and update path-related classes
647c9e633 Update graph functionality and improve path string representation
7fbdeaaca Remove commented-out code in Paths.java
a4a5c98ad Remove commented-out code in Paths.java
ca828c796 Enhance path selection options in PathsAction
ef26db25b Update adjustment set calculations in Paths.java and TestGraph.java
d88187d35 Add Javadoc comments to Paths and GraspFci classes
6281e337f Update log messages in BfciSb
937083f4a Refactor FciOrient initializations to use SepsetsGreedy
004c71051 Refactor and reorder fields in various classes
8a698b2b5 Refactored BfciSb search class and updated related documentation
41034da1d Refactor BfciSb.java and update edge validation conditions
785ec789b Refactor and streamline graph search code
34ab2b01c Refactor code to enhance Logging and Graph Generation
daa4f3d5e Refactor BfciSb algorithm and remove redundancy
dadd4f90e Rename LvLite to BfciSb and refactor algorithm implementation
e8375565c Refactor LvLite.java, optimize adjustment set tests in TestGraph.java
2c5f8f84c Remove unnecessary import of UnsupportedOperationException
b9c43b806 Add adjustment set methods with related tests and boost version to 7.6.5-SNAPSHOT
8477914c6 Update INSTALL_APPLICATION.md
f49fadd1f Merge branch 'development' of https://github.com/cmu-phil/tetrad into joe-work-2024-5-7
96ec58e51 Update version number to 7.6.5-SNAPSHOT
5d501eca4 Update Tetrad version from snapshot to 7.6.4
32e5d3680 Refactor LvLite's tucking scheme
54445e882 Update condition in LvLite.java
2b31cf181 Update condition in LvLite class
b12b0acbf Merge pull request #1765 from cmu-phil/alternative_disc_path
8350c6e4e Refactor LvLite algorithm and update error handling in DagSepsets
e51f9b5e8 Update methods in test files for better accuracy
0300d96a0 Merge pull request #1759 from cmu-phil/joe_adjustment
e80885de0 Merge branch 'development' into joe_adjustment
fb7a079a8 Improve reachability algorithm performance in CPDAGs and PAGs
b18fc3e1a Simplify code and remove redundant comments
24de5bcb9 Add documentation for score-based rule in LvLite.java
86fb02837 Add verbose logging in LvLite search algorithm
946f6d7fa Update LvLite class constructors and method documentation
94121a582 Remove depth setting in LvLite algorithm
180ca8ea7 Remove unused code and methods in FciOrient
d48bae112 Update FciOrient constructor documentation
591cdc21b Remove unused variable and commented code in LvLite
bd46da0fe Remove unused imports in LvLite.java
44f804dfe Refactor LvLite class and update method descriptions
89425de8c Refactor multiple classes and update LvLite algorithm
3ea975099 Refactor edge manipulation logic and rule set application
24ea09d65 Update adjacency check and remove seed setting in LvLite
ceaf8e536 Refactor code for various algorithms and classes
6e22c3cd9 Add functionality to resolve almost cyclic paths
d38e0236f Update table background color in graph_edge_types.html
6eb72c914 Add feature to resolve almost cyclic paths in graph search
c5819e160 Refactor LvLite search algorithm and update comments
3bb5a71b8 Update LvLite class documentation
6c5180780 Update LvLite class documentation
d6d50989d [Message] Enhanced sepset calculation to include node sets
d8db60975 Removed P1, P2, PagIdea, and PagIdea2 files
a4820054b Add verbosity checks to logger in FciOrient and LvLite
586f78359 Add functionality for latent confounder detection in bidirectional edges
96003cb4f Refactor code for visibility check and search configurations
a0ce0c22d Update visibility check method and update search configuration options
ba38a57ec Remove unused parameters in LvLite.java
5c10863d6 Remove unused parameters in LvLite.java
6dabab494 Refactor LvLite.java to simplify code
f77c64052 Refactor variable names in LvLite.java
fa999c5b0 Refactor variable names in LvLite.java
9389d7859 Refactor LvLite.java to remove unused code
a2580ac92 Remove NumCompatibleVisibleAncestors and refactor related code
7e7d4f5cd Add GraspLvLite class and update GraphUtils
6e22e06cb Add GraspLvLite class and update GraphUtils
de36601f2 Add GraspLvLite class and update GraphUtils
8bc4a9924 Add SepsetsMaxP class and update references
ffcf83377 Remove cap on 'b' value in ChoiceGenerator
3fa61ffcd Refactor code and improve condition checks in graph methods
291f59711 Refactor PAG coloring to PAG edge specialization markups
d75a78f7e Refactor PAG coloring to PAG edge specialization markups
d895035ed Merge pull request #1764 from cmu-phil/vbc-04-23
482d97b0a Add MagToPag conversion feature and update RevertToPag
0d7e3f419 Add MagToPag conversion feature and update RevertToPag
7264f3474 nit
576a3f85e Statistics for true graph's CPDAG compared with estimated CPDAG's local MB and Parents
a0d18969a Local statistics when initial true graph is CPDAG
06a7f334c Add PAG coloring support in AbstractWorkbench
deb6e4d44 Add PAG coloring support in AbstractWorkbench
06cb581e1 Merge remote-tracking branch 'origin/joe_adjustment' into joe_adjustment
250276afa Merge branch 'development' of https://github.com/cmu-phil/tetrad into joe_adjustment
69635b7e2 Merge pull request #1763 from cmu-phil/vbc-04-22-2
317855e50 Check target node's Parents nodes through FisherZ then use the PValues against AD Test agianst Uniform Distribution then get the Adj and AH Precision and Recall for the accepted and rejected nodes respectively
7aa873ce7 Refactor random graph type and limit settings
2969363ea Update graph edge label and modify input prompt
b4f146308 Update graph edge label and modify input prompt
4abde0d3a Remove UndoLastAction import and adjust paragraph indentation
52f131c60 Add UndoLastAction import in TetradMenuBar
97c413d33 Update graph edge types documentation and URL in LaunchFlowchartAction
78cdfd758 Refactor clique selection logic in SelectCliquesAction
0f021c357 Correct typos and comment out block of illegalMpdag check
df4ebb91c Merge branch 'development' into joe_adjustment
ca9bb5d3e Merge pull request #1762 from cmu-phil/vbc-04-22
c0d789abf Adj and AH Precision and Recall for rejected MB nodes
d9219d8d5 Adj and AH Precision and Recall for accepted MB nodes
5d0d43b38 Update clique selection action in GraphWorkbench
ec1a7c3a5 Update clique selection action in GraphWorkbench
40c93756d Add 'SelectCliquesAction' and update documentation
d85f7213c Set current view to "Index" in PagEdgeTypeInstructions
e58055957 Update graph edge types documentation and resize help window
e8b76be53 Add undo, redo and reset actions to Graph Editor
0b46de6cc Update graph edge explanation and help window size
f9cb33ec6 Add 'SelectEdgesInCyclicPaths' class and update 'GraphUtils'
02b9d91ef Add 'SelectEdgesInCyclicPaths' class and update 'GraphUtils'
1060fa859 Add SelectPartiallyOrientedAction and SelectNondirectedAction classes
26a30b893 Remove redundant graph path conditions and statistics
77c2d0395 Add "ExistsAlmostCyclicPathEst" statistic class
92c06d54b Refactor edge selection and improve terminology clarity
ac44ce6c3 Update action label in PickZhangMagInPagAction
7c23ae58b Optimize graph legality check methods
7e65e2e1f Updated graph manipulation methods and corresponding GUI elements
e5a58a07d Update graph check dialogs to use containing JScrollPane
cccaf14f6 Refactor PAG coloring and adjust paste naming in GUI
ec29905da Add 'cut' functionality to graph editors
a09e93926 Implement redo function in graph editor
72c9dc469 Implement redo function in graph editor
84dd18402 Refine graph handling methods
4d7f1c377 Disable graph type checks in GraphSaveLoadUtils
b165bd2a1 Merge branch 'development' of https://github.com/cmu-phil/tetrad into joe_adjustment
054339fe0 Merge pull request #1761 from cmu-phil/vbc-04-18
4fef1121f Disable graph type checks in GraphSaveLoadUtils
2db8adf6a Move addGraphManipItems method to GraphUtils class
08e5c2dc7 Update JavaDoc for various methods across several classes
3b39bc07d Remove log message and add new test for m-connection
88cb1dbb6 Refactor graph operations and initialize sets
10aceb717 Some adjustments.
cf9a27318 Add dependency-reduced-pom.xml to tetrad-gui
e86b11ec7 Add 'SelectEdgesInCycles' class in tetrad-gui module
1a6d91ac9 Add new functions for graph manipulation
40b9f1b15 cleanup comments
b0c2103e6 TODOs for Precesion and Recall
23231f400 Add "Meek Rules" submenu and handle exception in TestGraphUtils
677696668 Merge branch 'development' of https://github.com/cmu-phil/tetrad into joe_adjustment
253948731 MB extraction
636af2fe5 Merge pull request #1760 from cmu-phil/vbc-04-17
22d823b3d Null checks in EdgeListGraph
2075a3d58 Refactor PAG and MAG validation functionality
c1786a74b Refactor adjustment sets to "visible edge adjustments"
48e18e2ac Refactor graph methods and improve documentation
009f7e3b3 Refactor graph methods and improve documentation
3d0289a90 Replace 'cpdagForDag' method with 'dagToCpdag'
1146fb33f Update UI and graph logic
6015e261d Implement Meek Rules in Paths class
1c3b626d4 Add support for user-supplied graphs in Algcomparison
32cb83e0c Add checks for graph types in GUI
f350195f7 Add selection bias option to getParents method
216a8bd14 Update methods to include additional parameter
b47ec2d09 Merge branch 'development' of https://github.com/cmu-phil/tetrad into joe_adjustment
70ab987e1 Merge pull request #1758 from cmu-phil/joe_bif_format
d90c69d18 Refactor graph separation logic and simplify EdgeNode
89a5b0b10 Refactor graph path methods and adjust code accordingly
85b526b5d xx`
59be51279 Update validation conditions in graphToAmatCpag function
f96473f88 Update graph loading and saving functionality with amat.pag format
9632c0955 Add functionality for loading graphs in "amat.cpdag" format
923402601 Fix typo in BayesImParamsEditor class
f0b500499 Refactor menu structure in BayesImEditor
2713be591 Add BIF save action and Bayes Bif Renderer
995f06a96 Add functionality to load Bayes IM as BIF format
019cc26df Refactor and enhance Algcomparison editor's functionalities
5c8f53c51 Typo.
c92657238 Typo.
05e6473ab Merge pull request #1754 from cmu-phil/joe_algcomparison3
189ece11d Correct typo in documentation header
55923fc2c Update documentation with tool guides
1d18da2c0 Add Markov, IDA check and Algcomparison guides to docs
76e3f3d6d Corrected HTML character entity reference in comments
f812e1b99 Refactored UI to handle cases with no parameters and simplified code
704b4e4d2 Add reference citation to AlgcomparisonEditor
a23ebf4cb Add parameters to AlgcomparisonEditor model
21b516dfc Remove COMPARE_GRAPH_ALGCOMP parameter addition from multiple simulations
2a8cd6360 Add COMPARE_GRAPH_ALGCOMP parameter to various simulations
f4314a67d Refactor BayesIm usage and documentation in Tetrad application
ecd3ad373 Update method descriptions and parameter settings in various classes
d574d75d3 Correct typo in BOOTSTRAPPING_NUM_THREADS variable
e95e230e8 Replace setNumThreads method with setParallelism
498e20ce9 Improve directory handling and add parallelism configuration
f4d1f517d Add setParallelism method to Comparison class
310387bb6 Handle exceptions in ForkJoinPool tasks in `Comparison.java`
2dbac130c Reposition thread interrupt handling in `Comparison.java`
f3ba0df9b Add thread interrupt handling and GUI enhancements
1ca0deae7 Update parameter handling in AlgcomparisonEditor
a43145519 Remove logging and serializing issues from algorithm comparison
816ea452d Refactor algorithm comparison process and UI presentation
5636dddbc Add verbose output tab in AlgcomparisonEditor
d3f8b304f Remove unnecessary line in AlgcomparisonEditor
a038880b9 Refactor parameter conversion in AlgcomparisonEditor
f4792019f Refactor parameter conversion in AlgcomparisonEditor
53002e2cd Improve AlgcomparisonEditor parameter handling and description
15041f85f Add author tag to AlgcomparisonModel
1d3548444 Remove author tag and unused variable in AlgcomparisonModel
7043541bc Add references and clean up in Algcomparison code
f18d6c95e Refactor parameter handling in AlgcomparisonEditor
1c43f25c0 Adjust AlgcomparisonEditor's parameterBox dimensions
aaaa9c73e Expand functionality description in AlgcomparisonEditor
45f669906 Simplify string and table index conversion in AlgcomparisonEditor
8afcada60 Refactor AlgcomparisonEditor to improve table indexing
450808bb4 Add new IdaCheck statistic classes for data model evaluation
7e23c443c Add Markov check statistics for graph distribution evaluation
59b0ddf3f Remove redundant column comparison in AlgcomparisonModel
7d5a1bc7d Simplify column comparison logic in AlgcomparisonModel
5cbe9fd8e Fix incorrect array indexing in AlgcomparisonEditor
7b7186697 Allow dialog boxes to be resizable in AlgcomparisonEditor
05e690445 Refactor AlgcomparisonEditor for readability and UI improvements
ae1a1178f Make dialogs resizable in AlgcomparisonEditor
273c5cd63 Set Dialogs as non-resizable in AlgcomparisonModel
0102d6f38 Add visibility options to comparison settings in AlgcomparisonModel
a6308aaf6 Add JScrollPane for variable comparison in AlgcomparisonEditor
bebc3e546 Merge pull request #1756 from cmu-phil/vbc-2024-03-29
723732911 Refactor "statistics" concept to "table columns" in AlgcomparisonEditor
ea268326c Simplify information message in AlgcomparisonEditor
149957077 add IndTestChiSquare case
06551cc9d Merge pull request #1753 from cmu-phil/vbc-2024-03-29
80b936d2d Disable saving CPDAGs and Pags in AlgcomparisonModel
68b489be9 Merge pull request #1755 from cmu-phil/vbc-2024-04-05
35b8db3a0 add public  getPValue method for IndTestChiSquare
a4befd56c Refactor directory path generation in AlgcomparisonModel.java
591a4efd5 create mseptest instance on the true graph
1c99d6be3 Implement focus listener in AlgcomparisonEditor.java
37d45923b Add comments for SimulationWrapper class in Comparison.java
f22d7e6d8 Refactor and improve clarity of simulation comparison code
08bc69028 Optimize AlgcomparisonEditor with sets and prevent duplicate entries
9a754d346 Added Kevin as an author to the algcomparison ui code, since half the code is his.
797879462 Refactor and enhance code comments
787282fe8 Refactor and enhance code comments
11b98c8bd Refactor and enhance code comments
7075fac8a Refactor and enhance code comments
ca1dff6c1 Refactor AlgcomparisonModel and enhance AlgcomparisonEditor UI
91d8e4fdb Refactor AlgcomparisonModel and enhance AlgcomparisonEditor UI
d946fe75b Update AlgcomparisonEditor and refactor AlgcomparisonModel
5c8686787 Refactor column sorting algorithm in AlgcomparisonModel
ae9d73aa7 Refactor code in AlgcomparisonEditor and AlgcomparisonModel
7aa38edce Refactor AlgcomparisonEditor to improve table handling
1d8ac49a2 Refactor table column handling in AlgcomparisonEditor
768b90b42 Update references from "statistics" to "table columns" in AlgcomparisonEditor
da6d701f8 Replace "Statistics" with "Table Columns" in AlgcomparisonEditor
7632dd2ba Add both options to boolean parameters in AlgcomparisonEditor
5eca12e4b Refactor several text field classes and AlgcomparisonEditor code
9b022f0c5 Refactor AlgcomparisonEditor and remove unnecessary code in AlgcomparisonModel
eaf82a30d Refactor AlgcomparisonModel and improve null handling
5347f40e8 Update AlgcomparisonEditor and AlgcomparisonModel classes
068fbc501 nit
6c8abafdd Revise tab names and deactivate some functions in AlgcomparisonEditor
843349c23 Add author tag in AlgcomparisonModel class
d71718838 Update comments and structure of AlgcomparisonModel
0347379ce Implement major code refactoring for AlgcomparisonEditor
ea91e2a65 Refactor AlgcomparisonEditor for number list parameters
10193dda6 Refactor algorithm comparison editor to handle number list parameters
594937125 Implement the logic of checking node's local Pvalus using FisherZ and compare the result with Uniform Distribution using Anderson Darling tes
120d17653 Implement number list for parameters in algorithm comparison editor
c3c25d825 Update acronym and algorithm comparison behavior in Tetrad GUI
f89aaa53b Mark fields as transient in AlgcomparisonModel class
e6217fc36 Update AlgcomparisonEditor GUI and refactor related classes
601224c2a Refactor AlgcomparisonEditor and related classes
f9e551296 Refactor AlgcomparisonEditor and related classes
fe32ef5cf Update GUI and implement `getShortName` in simulation classes
89466aa1f Add short names to simulation classes and refactor GUI functionalities
f4c92d291 Refactor editor name in SessionEditorNode class
b9dd53998 Merge pull request #1752 from cmu-phil/joe_bayes_im
e94dc2285 Refactor editor name in SessionEditorNode class
65440f89a Update naming for Bayes models in config files
44cb9af35 Change default prior count and comment out log data
7e51d01f2 Add new constructors to estimator wrappers
e07f12b34 Update Bayes estimation to accept adjustable priors
fcd1df181 Refactor class instantiation and streamline list operations
c6eefe1d1 Update Bayes estimator and related classes for improved accuracy
2dcfed29d Refactor model name and enhance prior count in Bayes estimator
6ebe35629 Merge pull request #1750 from cmu-phil/joe_bayes_im
854381d3c Merge branch 'development' into joe_bayes_im
3abb9c95f Refactor initialization methods in Bayes' methods
8085291dc Refactor initialization methods in Bayes' methods
2cd7ebb46 Refactor initialization methods in Bayes' methods
c10116ccc Fix typographical error in Statistic.java comment
e9f274c62 Refactor conditional checks and parameter names
ed5622c20 Add null check in existsParameterizedConstructor method
406cd7001 Merge pull request #1749 from cmu-phil/joe_ida_interface2
c8eb3524a Added "Average" to IDA summary stats names.
a9fd61c8a Added "Average" to IDA summary stats names.
0db2a73fc Merge branch 'development' into joe_ida_interface2
d5a0daa51 Merge pull request #1751 from cmu-phil/vbc-2024-03-28
444eaeece Refine getVariables and checkNodeIndependenceAndConditioning for clarity
86447cbbb Refactor getVariableNames method in MlBayesIm
27a564dbe Removing the original MlBayesIm code.
279b5f884 Update code for efficient probability storage in MlBayesIm
3a1b0ddb5 Replace probability matrices with CptMaps in MlBayesIm
701d15e27 Remove simulation task from MlBayesIm
a7b9166f7 Refactor MlBayesIm storage method explanation
39a4afd42 Simplify CptMap class and its comments
27a6334de Enhance storage strategy and comments in CptMap.java
a6552a597 Refactor storage method in MlBayesIm.java and update comments
acd6268c4 Correct grammar in MlBayesIm.java comments
56185087d Rename class ProbMap to CptMap and update methods
983352980 Rename class ProbMap to CptMap and update methods
14ba1fe50 Rename class ProbMap to CptMap and update methods
a9da8ce62 Add Javadoc comments and update matrix data managing method
dc4e45525 Implement ProbMap for efficient probability storage
681f3aa76 Introduce ProbMap and implement it in MlBayesIm
6e16cc06e Add MlBayesImOld.java for representing directed acyclic graphs
17eca97c1 Remove outdated MlBayesImOld class
9f00f431d Commit message: Add MlBayesImOld.java
cc9bd3b88 Commit message: Add MlBayesImOld.java
7ec0b5f69 Refactor code for better readability and clarity
98ddf0e10 Refactor equality assertion in TestEvidence.java
a705bb1eb Code cleanup.
8013efe58 Refactor code to optimize variable instantiation and assertions
abd30bd3f Add new graph comparison statistics
04e6ef992 Update GUI operations to use SwingUtilities.invokeLater
a176a8815 Improve handling of invalid model indexes
c103f50ea Update method to return signed minimum absolute effect and improve documentation
0efc82e7c Remove redundant code in MarkovCheckEditor
3170cf365 Refactor IdaEditor and MarkovCheckEditor
7faee43f0 Update comment about 'clear' parameter in MarkovCheck
c8893d6b8 Update comments in MarkovCheck.java and MarkovCheckEditor.java
6922420b4 Refactor IdaEditor and MarkovCheckEditor classes for better readability
69b479d28 Improve MarkovCheck class and related UI handling
dc3827e7f Refactor code in IdaCheck and improve documentation
91860cd79 Refactor code in IdaCheck and improve documentation
264ce89ee Refactor code in IdaCheck and improve documentation
31f78fbba Refactor code in IdaCheck and improve documentation
0b71bb02e Simplify histogram generation in MarkovCheckEditor
5af6fc6e5 Refactor p-value retrieval methods and enhance histogram display
9f70e4cbf Add methods to compute squared differences in total effects
2cec7ac5b Refine conditional checks and calculations in MarkovCheckEditor
cedd3ee1c Optimize table sorting and filtering in GUI code
4655ee8bc Refine avgSquaredDistLabel initialization in IdaEditor class
7ded8e4f8 Update input processing and enhance table filtering in multiple editors
11196beba Update input processing and enhance table filtering in multiple editors
9a0ff931e Update Ida algorithm to calculate total effects
45d2fb9e1 Refactor effects calculation in Ida and related files
99d57c57a Refactor effects calculation in Ida and related files
934763373 Refactor MarkovCheckEditor, remove 'Min Beta' features
bb8d4965f Refine comments in GeneralizedSemEstimatorEditor class
830b72c87 Refine comments in GeneralizedSemEstimatorEditor class
88e3c60d4 Improve grammar and punctuation in IdaEditor comments
e97ea5286 Merge pull request #1748 from cmu-phil/joe_window_preferred_dimensions
1268992e4 Improve grammar and punctuation in IdaEditor comments
db00bcea2 Fix text split operation in IdaEditor
bf73f01a1 Improve UI in IdaEditor with a tabbed pane and added description
3852cbed7 Add exception handling to regex filter parsing in IdaEditor
31b8c9b65 Update label and filter parsing in IdaEditor
77a6a527b Update IdaModel constructors and Tetrad application startup
50b600a31 Refactor comparison condition in IdaCheck
85301cbdf Refactor IdaCheck to exclude private DataSet attribute
b887fa1d4 Update button label and comment out 'Min Beta' column in MarkovCheckEditor
98ff2d9e7 Refactor IdaModel and IdaEditor for more efficient data handling and presentation
c0033699d Refactor IdaModel and IdaEditor for better data presentation
cf2b4f6eb Refactor IdaModel and IdaEditor for better data presentation
aa01077b0 Added new IdaModel constructor and improved SemIm retrieval
71fddbfa5 Add null checks and enhance IdaCheck constructor
454f7e44c Add null checks and enhance IdaCheck constructor
1e9ebfdd7 Add null checks and enhance IdaCheck constructor
9adaf8f2c Rename 'MaathuisIdaCheck' to 'IdaCheck' and update constructors
3c598abfc Add 'MaathuisIdaCheck' class and update methods access in 'Ida' and 'GraphSearchUtils'
26e7df7ef Update README.md
5010793cf Update window size and position with user preferences.
0f710f9bd Update button label and comment out 'Min Beta' column in MarkovCheckEditor
633eee5b3 Adjust dimension calculation in Tetrad GUI
2651a4eed Adjust dimension calculation in Tetrad GUI
2130e28cd Initialize bHat matrix and rename its getter in IcaLingam.
d2874314e Initialize bHat matrix and rename its getter in IcaLingam.
2420ecba0 Add graph and matrix to _bHats list in IcaLingD
94069d28b Add lists for graph and matrix types in IcaLingD and IcaLingam classes
4d1898ac6 Refactor and document Tetrad GUI code
6aba0ea0c Refactor and document Tetrad GUI code
fe3063993 Merge pull request #1746 from cmu-phil/peter_fixes
412d22b77 Optimize PagColorer string check
c19c50c4d Refactor TaskRunner and improve GUI interruption handling
f5988d3e3 Merge pull request #1744 from cmu-phil/kevin-error-msg
98d24befa Add PAG coloring for latent variable algorithms
e523c1103 Refactor check for latent variable algorithm
232f3f421 Refactor latent variable algorithm checker and adjust labels
58f852962 Refactor acyclic graph detection in IcaLingD.java and IcaLingam.java
f932dde1e Propagate exception from running tasks to the process watcher.
b3d289dad Merge pull request #1743 from cmu-phil/kevin-cancel-task
6a114af0c Added a field to indicate if a stop button has clicked.
4b05aa83c Merge pull request #1738 from cmu-phil/kevin-bootstrap-refactoring
f28779b4b Fixing some issues in R.
622bbc600 Fixing some issues in R.
1c1e0107a Fixing some issues in R.
0a06f0b67 Fixing some issues in R.
60c46c850 Implement TIME_LAG parameter and edge null-check enhancement
07b5230c9 Add panel for non-bootstrapping algorithm in AlgorithmParameterPanel
f92a31d7d Fix comment typo in AlgorithmParameterPanel class
b3d9c3bca Restrict bootstrapping parameters to bootstrap algorithms
5831d763b Refactor Bpc class and error messages
3dd4460aa Refactor comments and add default constructors for readability
097d019e5 Added default constructors and clarified comments for code readability
dc12baaed Adjustments to improve code readability and understanding
b92cdeade Add default constructors and enhance documentation
f35694700 Improve documentation and add default constructors
5de45ed1c Refactor and improve documentation in Tetrad library
de9285f94 Refactor code and documentation in CMU Tetrad library
3a17642e2 Add constructors and refine comments in CMU Tetrad library
064bdea5f Refactor multiple classes: Enhance method documentation
c44200c7b Update javadoc comments for multiple methods in different classes
50631e627 Refactor method comments for clarity
dab51365f Update method comments and refactor code
02769e04d Remove unused bootstrapGraphs from PagSampleRfci
a4cfb6b12 Remove GeneralResamplingSearch and related classes
86e8e2b3f Update handling of parameters in AbstractBootstrapAlgorithm
543005414 Add check for empty records and update documentation
0c67cf98b Refactor switch-case algorithm and validate data in Mgm
a902c7480 Refactor calculations and reintroduce 'maxEntApprox' in DirectLingam class.
a5c939e53 Refactor calculations and reintroduce 'maxEntApprox' in DirectLingam class.
780213a92 Removed debug print statement from IcaLingam class.
84915cdfe Refactor acyclic graph detection in IcaLingD.java and IcaLingam.java
3a11b44d5 Updated node naming and screen display sizing
bb5094121 Reformatted code.
97366a6a6 Reformatted code.
54715642b Refactor IcaLingD and IcaLingam classes and their tests
db2f997ac The provided commit message seems incorrect based on the diff provided. Here's the correct commit message:
bcb4519db Remove unused classes in the algorithm comparison package
80e71da7f Converted the algorithms in the PAG package to the new bootstrap API.
19a1be888 Merge remote-tracking branch 'origin/kevin-bootstrap-refactoring' into kevin-bootstrap-refactoring
17a6e80fa Removed overrridding method.
7dce17487 Use the new bootstrap implementation.
f7828a469 Use new bootstrap implementation.
cae55a597 Added base class for bootstrap algorithms.
08014fb30 Added a class that runs tasks.
64d7ce519 Added a utility for resampling data.
1e1f5c439 Merge pull request #1737 from cmu-phil/markov_checker_min_betas
85242efa2 Update TetradLogger and AnnotatedClass structure
1cf2fc321 Refine CPDAG validation in MarkovCheck
bfabbb6ea Adds an additional check for CPDAGs in MarkovCheck and includes minimum IDA beta value calculation in the result set. This increases accuracy and precision of the CPDAG validation and expands IDA beta value returned in Markov checks.
abb1e2685 Removed BIC attribute addition from Fges algorithm
6ec26c141 Update dependencies and improve application logging
efd3c7a4c Merge pull request #1736 from cmu-phil/refactor_sem_ims
b8283dc2c Limit correlation calculation results within range
14b8e2768 Merge pull request #1735 from cmu-phil/refactor_sem_ims
d019382e8 Updated method descriptions and terminology in sem packages.
b339117d1 Updated method descriptions and terminology in sem packages.
060b9a4b5 Refactored GeneralizedSemSimulation and SemSimulation.
61bc77904 Merge pull request #1734 from cmu-phil/joe-work-2024-2-21
c147579d2 Fixed GeneralizedTemplateEditor in the same way.
4f50f1f1e Refactor and document methods in GeneralizedExpressionEditor.java
cebeef0db Refactor and document methods in GeneralizedExpressionEditor.java
5358553eb Refactor and document methods in GeneralizedExpressionEditor.java
319dc6df5 Fixed bug in generalized sem PM where edits to formulas would eventually cause Tetrad to hang.
38f429eb9 Fixed bug in generalized sem PM where edits to formulas would eventually cause Tetrad to hang.
7edf81f87 Refactor algorithm comparison documentation
d6cedfc79 Refactor algorithm comparison documentation
240f52324 Refactor algorithm comparison documentation
eceaeaaeb Refactor GeneralizedSem code and fix typos
ee059e68e Refactor GeneralizedSem code and fix typos
7dca4e38b Update version to 7.6.4-SNAPSHOT in multiple pom.xml files
bdb498e90 Refactor and reformat code for clarity
d0bc4650f Refactor and reformat code for clarity
6ccbab8d5 Refactor parameter templates and update documentation
1037f1889 Update parameter templates and improve documentation in GeneralizedSemPm
3e9fac313 Refactored the GeneralizedSemPmEditor.
82dd2290d Refactored the GeneralizedSemPmEditor.
5b44a2ee7 Refactored the GeneralizedSemPmEditor.
b75750fde Refactored the GeneralizedSemPmEditor.
4360b4c3e Update raw type usage and enhance comments in multiple classes
3d8fd6830 Fixed bug where the SemSimulation class was not using new SemIm's to simulate multiple runs of data.
9a3ab17da Fixed bug where the SemSimulation class was not using new SemIm's to simulate multiple runs of data.
ec592e062 Added new bootstrap method for GFCI and Boss for testing purposes.
7d202f5cc Improve code readability with better comments and parameter descriptions
5771b69de Refactor code formatting for better visibility
4d6169c44 Relocate MixtureModel.java to work_in_progress directory
36e0e8ad9 Update code documentation and refactor methods
5cfd59480 Remove unnecessary covariance functions
fa6c04eff Added a class to handle tasks.
c07d08887 Use regular list instead of singleton list.
5fe2b5e6b Checked for thread interruption.
a547eab13 Refactor MarkovCheck description and add comments to variables
40fcba95a Added a utility to resample dataset.
323020ee0 Merge pull request #1732 from cmu-phil/joe-work-2024-2-19
310ad31a7 Simplify ForkJoinPool utilization
b81e92bfd Refactor logging mechanism for algorithm execution
55bad6d7b Refactor code related to collider and non-collider triples
4ece0dc0a Add verbosity checks to logging in search algorithms
03e9d14c3 Refactor TetradLogger to use forceLogMessage method
687dfca86 Update Logging Utility and Add Verbose Mode to PC-like Algorithms
8c8826002 The IntelliJ reformat code can now be run on the entire codebase without causing any exceptions in the code.
dcc43701b Refactor and improve code readability in Tetrad app
8d592a434 Refactor anonymous inner classes with lambda expressions
cafaeb68b Refactor anonymous inner classes with lambda expressions
519c848a7 Refactor anonymous inner classes with lambda expressions
bddb63856 Refactor ColorThread class in GeneralizedExpressionEditor
66a0b9630 Correct typos and improve code comments clarity
f010906f7 Restructure code for improved readability and maintainability
9d6d8d5ed Refactored code for better readability
dc842b9b4 Reorder imports and format code
4320bd138 Cleanup.
4ad8a43e1 Cleanup.
0a9f6815d Refactor code in LoadSessionAction class
2d0b0a38e Merge remote-tracking branch 'origin/joe-work-2024-2-19' into joe-work-2024-2-19
cf9bdaa6f Improved thread handling and updated comments
225c45420 Update test setup methods and improve error handling
133fe013a Fixing some loadability issues.
6571ae471 Fixing some UI issues for Markov checker.
8cf92a5f8 Increase random number multiplier in MlBayesIm
1cbbfa2d2 Cleanup.
533305a83 Refactoring model class paths and improving likelihood ratio tests
6e246a681 Refactoring model class paths and improving likelihood ratio tests
fe759450a Moving the session package into edu.cmu.tetradapp.
d1b6b9bcd Moving the session package into edu.cmu.tetradapp.
3a9379fdd Moving the session package into edu.cmu.tetradapp.
8f4901ea1 Merge pull request #1731 from cmu-phil/kevin-app-inital-size
25321ca20 Do type-casting at the very end.
ad5e961fa Set default app size to 4:3 ratio.
bc6178577 Merge pull request #1729 from cmu-phil/joe-work-2024-2-7
0f9e1de64 Merge branch 'development' into joe-work-2024-2-7
755d076ba Changing default for adding original dataset in bootstrapping to false.
ba2d5517e Update method comments and improve error handling in Paths class
9f6110023 Removed the isPdag method.
624ce2ed3 Added a method to test whetehr a given graph is a legal CPDAG.
d948fca68 Added a method to test whetehr a given graph is a legal CPDAG.
1dbfc6e4f Merge remote-tracking branch 'origin/development' into development
8a9cce5e6 Updated manual link.
22085a27f Updated manual link.
e19b8ef5b Cleanup.
cbfc0ecca Fixing stop button in interface so that if an algorithm is stopped, partial work is not returned.
f2db8f63a Fixing stop button in interface so that if an algorithm is stopped, partial work is not returned.
0becb062c Merge remote-tracking branch 'origin/joe-work-2024-2-7' into joe-work-2024-2-7
c3caa5132 Fixing stop button in interface so that if an algorithm is stopped, partial work is not returned.
e77906547 Temp
96af57c12 Cleanup.
7b47194cf Cleanup.
6843f49d1 Cleanup.
a2e5eeb10 Cleanup.
038893c7e Cleanup.
ea005a9a0 Cleanup.
1955cc54a Cleanup.
aaa7fe179 Cleanup.
c4f2f8f11 Cleanup.
52c69bbb0 Cleanup.
38d7b4334 Cleanup.
5252f0d92 Cleanup.
49268d475 Added a parameter for number of threads to BFCI and GFCI, since BOSS and FGES have this parameter.
305a2ec5b Fixed bootstrapping with the new threading model.
d3a4c16dd Fixed bootstrapping with the new threading model.
400589fa8 Fixed bootstrapping with the new threading model.
d8f3d3b93 Cleanup.
45a0b088e Cleanup.
a32dc3894 Cleanup.
00fc659c8 Trying to fix  threading throughout the code.
b394aed7c Trying to fix  threading throughout the code.
b046c5cfb Trying to fix  threading throughout the code.
b08458308 Trying to fix  threading throughout the code.
bce85dba1 Trying to fix  threading throughout the code.
a53259331 Trying to fix threading throughout the code.
a2a08221c Trying to fix threading throughout the code.
b9986e9da Trying to fix threading throughout the code.
d7799747a Trying to fix threading throughout the code.
d608d2fc3 Trying to fix threading throughout the code.
58c721c94 Cleanup.
3790986fd Cleanup.
08a3023cd Cleanup.
85642340c Cleanup.
b8ca13069 Cleanup.
62895be1e Cleanup.
c92d4c0f9 Cleanup.
e7db174de Cleanup.
19497803c Cleanup.
a5964932d Cleanup.
7ddb7ef57 Cleanup.
440585483 Cleanup.
c083026e1 Cleanup.
e683538e5 Cleanup.
c5773d8c9 Cleanup.
2c1160feb Cleanup.
42efefbbb Cleanup.
421ec33e1 Cleanup.
72c841051 Cleanup.
ee53ee5cd Cleanup.
61a48b643 Cleanup.
ce789f8a6 Cleanup.
72f93e9f8 Cleanup.
5a6c6e55a Cleanup.
fdaa37d35 Cleanup.
ae44add02 Cleanup.
dab8ecea1 Cleanup.
2c62ffcf8 Cleanup.
17e963c0b Cleanup.
3a6b1e6e4 Cleanup.
48a49527e Cleanup.
cb2ab8b17 Cleanup.
79a1aefa2 Cleanup.
5b01e2ae3 Cleanup.
5abd92e1f Cleanup.
e8e1abece Cleanup--ALL JAVADOC WARNINGS RESOLVED!!!
9cf1c207c cleanup
cb23dc5a0 cleanup
64b0f628a cleanup
32b582d9b cleanup
5eb83f64d cleanup
36436ed8e mvn javadoc:fix cleanup
a667ed830 Cleanup.
65258801f Cleanup.
e68644396 Added a method to MarkovCheck to print out a result as a string for use in Causal Command.
0c4b3a47f Added a method to MarkovCheck to print out a result as a string for use in Causal Command.
04885d439 Added a method to MarkovCheck to print out a result as a string for use in Causal Command.
612c560c3 Adjusted thread handling in FGES so that clicking the stop button in the interface causes all BOSS threads to stop.
ac7ac8e48 Adjusted thread handling in BOSS so that clicking the stop button in the interface causes all BOSS threads to stop.
af0931eae Adjusted thread handling in BOSS so that clicking the stop button in the interface causes all BOSS threads to stop.
315c311d1 Adjusted thread handling in BOSS so that clicking the stop button in the interface causes all BOSS threads to stop.
f27835b53 Added elapsed time of algorithm run to the Stats List editor if a GeneralAlgorithmRunner is a parent of it.
c548e46e1 Updating version to 7.6.3 for release.
39b768a2d Update INSTALL_APPLICATION.md
196459b11 Updating version to 7.6.3 for release.
9a16fb22d Updating date on manual to 2/6/2024.
1c5447293 Updating date on manual to 2/6/2024.
6203fb636 Merge pull request #1726 from cmu-phil/fix_docs_2024_2_6
681c61025 Fixed a couple of additional score/test issues. Now it all looks right in the Search box.
b2b4454c5 Merge pull request #1727 from cmu-phil/fix_random_mim_2_factor_issue
6ae7ecf4a Added missing docs for tests and scores in the Search box and removed some experimental scores and tests.
eb6cc89db Resolving some javadoc warnings.
3d2e3c52e Resolving some javadoc warnings.
195e1841a Fixed the javadoc errors.
259d111e1 Fixing an issue with the display of 2-factor random MIMs.
34f9a2f31 Added algorithms to the manual.
2d65c581d Fixing docs.
a125309e3 Merge pull request #1724 from cmu-phil/java17-reflection-fix
e3541fe9e Replaced deprecated method Class.newInstance().
015cd9f27 Update README.md
59e3139df Update INSTALL_APPLICATION.md
8a7b96903 Added a feature to copy the selected dataset from a data box with multiple data models into a separate box.
89c75dc4b Added a feature to copy the selected dataset from a data box with multiple data models into a separate box.
9e91d3aa6 Merge pull request #1719 from cmu-phil/joe-work-2024-2-1
6cfdd39c2 Merge pull request #1721 from cmu-phil/selected_data_feature
ae8eed678 Added a feature to copy the selected dataset from a data box with multiple data models into a separate box.
3fcaa7f1e Merge pull request #1720 from cmu-phil/markov-checker-gui-fix
aa58a8afc Fixed GUI layout.
c288b6193 Cleanup.
324907600 Adding a random seed parameter to BOSS and GRaSP and algorithms that use BOSS and GRaSP.
a6e9d042b Merge pull request #1718 from cmu-phil/joe-work-2024-1-27
bf668bbdd Fixed an issue in chi square.
3692a6584 Fixed an issue in chi square.
4e78da135 Fixed an issue in chi square.
f4837b094 Cleanup.
851003951 Cleanup.
c0ad0f883 Cleanup.
0db84c8a4 Cleanup.
195d158dc Cleanup.
7e64086d0 Cleanup.
47ec4cedd Cleanup.
8643e523b Cleanup.
d8ef7c188 Cleanup.
a83a05418 Cleanup.
65674e9bc Cleanup.
387cbb52b Cleanup. Plus, added caching for IndTestProbabilistic for the case where threshold = false.
980cdc595 Cleanup. Plus, added caching for IndTestProbabilistic for the case where threshold = false.
7ba8600c6 Nevermind, figured it out--the sample size in the fisher Z formula should have been the sampled rows size.
aa907932f Nevermind, figured it out--the sample size in the fisher Z formula should have been the sampled rows size.
79dab0868 Nevermind, figured it out--the sample size in the fisher Z formula should have been the sampled rows size.
c97b96e75 Got the pseudoinverse option to work in Fisher Z with subsetting, but it's behaving unintuitively to me, in that if you subsample 50% you get a overabundance of dependencies, which you don't with the non-pseudoinverse option.
3e89d4e06 Cleared up documentation in the search package.
4e8db6e18 Trying to fix some issues in the MarkovCheckEditor, but I can't it to resize properly in Swing if the user make it bigger. I did though get GRaSP to stop the thread when the stop butto is pushed.
8e8ca6a7d Still working on issues where the WatchedProcess dialog was hanging--I think I've solved that now. Also, starting to look at cases where clicking the stop button doesn't stop the algorithm--I just fixed for BOSS but I'll need to go through all the other algorithms. Also trying another way to handle covariance matrices for the MarkovCheckEditor, which seems to be working better.
01fe5109e Fixing some UI issues for Markov checker.
dc23ad097 Resolved a problem with WatchedProcess sometimes hanging when the dialog was set to visible.
76318f0c5 Merge pull request #1716 from cmu-phil/joe-work-2023-11-15
5b8d72bd0 Resolved a problem with WatchedProcess sometimes hanging when the dialog was set to visible.
aac588d0c Resolved a problem with WatchedProcess sometimes hanging when the dialog was set to visible.
4570252f1 Cleanup.
edfc74c43 Cleanup.
264f094f5 Cleanup.
3d2e1221e Cleanup.
b97a5a845 Fixed a bug im the Markov checker where it was failing to test some independencies and dependencies.
0ec58eece Cleanup.
140559a0e Cleanup.
c30dc69d1 Cleanup.
55164dfbb Cleanup and added try-catch clause around exit handler so it doesn't print an exception on Windows.
2a41a1dca Cleanup and added try-catch clause around exit handler so it doesn't print an exception on Windows.
532d0646d Update README.md
54c999aa2 Added code to center the Processing... dialog above the Tetrad interface app frame even if the app is moved to a different monitor.
4fb5c2627 Added code to center the Processing... dialog above the Tetrad interface app frame even if the app is moved to a different monitor.
721e79a5b Adding code to allow the WatchProcess dialog to follow the Tetrad interface app if the app is moved to a different monitor.
972a0ef34 Adding code to allow the WatchProcess dialog to follow the Tetrad interface app if the app is moved to a different monitor.
60e5194bb Cleaned up the search.util package.
7c8470dd1 Cleaned up the search.util package.
240d2e0fa Cleaned up code and documentation in the score package.
78e12628e Cleaned up code and documentation in the score package.
55981a4a6 Cleaned up code and documentation in the score package.
d368b6ce4 Cleanup.
0d019b12e Cleanup.
d79504ba3 Changed the wording of the "Processing..." button to "Processing (click to stop)...".
e52a34aea Cleanup.
023bbfb20 Cleanup.
73083737f Caught the event of a desktop being quit in the interface (as with command-Q on a Mac, which could not be handled in earlier versions), now displaying a confirm dialog. Updated the saving/loading code in the interface to be a bit more smooth.
65ce8f0fc Cleanup,.
7a1729d41 Cleanup,.
ec149088c Cleanup,.
939b54879 Cleanup,.
9d7d6c7b0 Cleanup,.
8b93c9e04 Cleanup,.
da8eac802 Cleanup,.
9eb5e5941 cleanup.
1be62a1ed Added knowledge for the Markov check in the interface; for the knowledge, for X _||_ Y | Z, X and Y are constrained to be in the last tier of the knowledge, and the nodes in Z are constrained to be among nodes in all tiers. Additional forbidden or required edges are not allowed.
83c848a55 Added a note that BIC is calculated as 2L - k ln N (or 2L - c k ln N) everywhere the term appears in the documentation.
b3e85a1c5 Fixed BIC score stamping for all relevant algorithms, both continuous and discrete.
4d27c375b Cleanup.
06b437c18 Added caching of independence results for all independence tests (except for Probabilistic test, which has an element of randomness). Also, fixed an issue in GrowShrink.
21d2092bd Made other tests and scores take the pseudoinverse parameter where possible.
04b474f19 Made other tests and scores take the pseudoinverse parameter where possible.
6e692e9a3 Removed the separate pseudoinverse fisher z class.
159630781 Removed the separate pseudoinverse fisher z class.
6b027b44f Translated fisher z pseudoinverse code to use the Matrix class (by refactoring the relevant method in SEM BIC and using it). Also, moved the pseudoinverse methods themselves into the fisher Z class and added a parameter to select whether to use them or not.
97591f7ed Cleanup.
45d427b3b Adding Knowledge to Markov Checker. In this knowledge, we consider independence facts X _||_ Y | Z. Here, X and Y can range over the variables in the last tier, and Z can range over the variables in previous tiers.
43affda3d Adding Knowledge to Markov Checker. In this knowledge, we consider independence facts X _||_ Y | Z. Here, X and Y can range over the variables in the last tier, and Z can range over the variables in previous tiers.
26acea650 Adding Knowledge to Markov Checker. In this knowledge, we consider independence facts X _||_ Y | Z. Here, X and Y can range over the variables in the last tier, and Z can range over the variables in previous tiers.
2f788965e Changed "generalized inverse" to "pseudoinverse" throughout.
bc8e49f0c Added a version of SEM BIC score that uses pseudoinverses to avoid exceptions.
3902de3f3 Some adjustments to DiscreteBic.
e9acb9529 Some adjustments to DiscreteBic.
d3a2669c6 Some adjustments to DiscreteBic.
b070f92ea Some adjustments to DiscreteBic.
af19c8926 Some adjustments to DiscreteBic.
5a3a7568a Cleanup. Also, re-introduced the 'pcHeuristic' parameter.
b1043292e Cleanup. Also, re-introduced the 'pcHeuristic' parameter.
1c91a20b1 Cleanup. Also, re-introduced the 'pcHeuristic' parameter.
e8e192458 Cleanup.
6b23e2b5c Cleanup.
ef845978c Update README.md
b455e050b Update README.md
a082229e5 Cleanup.
6a88fdf56 Cleanup.
e9237f202 Cleanup.
bb2dd63a3 Cleaned up the manual according to complains from IntelliJ (spelling and such).
e02cdc370 Cleaned up the manual according to complains from IntelliJ (spelling and such).
9e7a0710a Cleaned up the manual according to complains from IntelliJ (spelling and such).
04943eb23 Cleanup.
fab6122d2 Cleanup.
df448eb8b Cleaned up version of Chi-Square with promise of uniform p-values under the null.
f42dd16f7 Cleaned up version of Chi-Square with promise of uniform p-values under the null.
60c06c3a8 Cleaned up version of Chi-Square with promise of uniform p-values under the null.
0993eaafd Cleaned up version of Chi-Square with promise of uniform p-values under the null.
8b97a51b3 Cleaned up version of Chi-Square with promise of uniform p-values under the null.
88966e8c6 Cleaned up version of Chi-Square with promise of uniform p-values under the null.
ec32b53dc Cleaned up version of Chi-Square with promise of uniform p-values under the null.
ebc99d719 Updated some dependencies.
79ac5d8de Updated some dependencies.
fb897e44b Work on Chi Square test. Made a parameter to allow the user to specify the minimum row and cell counts for calculating chi-square and g-square.
9d97837d1 Work on Chi Square test. Made a parameter to allow the user to specify the minimum row and cell counts for calculating chi-square and g-square.
6371dd03a Work on Chi Square test. Made a parameter to allow the user to specify the minimum row and cell counts for calculating chi-square and g-square.
12df53298 Work on Chi Square test. Made a parameter to allow the user to specify the minimum row and cell counts for calculating chi-square and g-square.
a7c8811a2 Work on Chi Square test. Made a parameter to allow the user to specify the minimum row and cell counts for calculating chi-square and g-square.
7f28bdcd3 Changed the Causal Order layout to judge both --> and o-> as putting nodes in a subsequent tier.
ca8ab18d0 Making fisher z row-settable.
91bb087b9 Switching to JDK 17 in the pom files.
cbffcbde8 Making fisher z row-settable.
39a79c480 Update INSTALL_APPLICATION.md